
fw_payload.elf:     file format elf64-littleriscv


Disassembly of section .text:

0000000080000000 <_fw_start>:
    80000000:	00050433          	add	s0,a0,zero
    80000004:	000584b3          	add	s1,a1,zero
    80000008:	00060933          	add	s2,a2,zero
    8000000c:	654000ef          	jal	ra,80000660 <fw_boot_hart>
    80000010:	00050833          	add	a6,a0,zero
    80000014:	00040533          	add	a0,s0,zero
    80000018:	000485b3          	add	a1,s1,zero
    8000001c:	00090633          	add	a2,s2,zero
    80000020:	58fd                	li	a7,-1
    80000022:	01180463          	beq	a6,a7,8000002a <_try_lottery>
    80000026:	13051d63          	bne	a0,a6,80000160 <_wait_relocate_copy_done>

000000008000002a <_try_lottery>:
    8000002a:	00000817          	auipc	a6,0x0
    8000002e:	4ae80813          	addi	a6,a6,1198 # 800004d8 <_relocate_lottery>
    80000032:	4885                	li	a7,1
    80000034:	0118282f          	amoadd.w	a6,a7,(a6)
    80000038:	12081463          	bnez	a6,80000160 <_wait_relocate_copy_done>
    8000003c:	00000297          	auipc	t0,0x0
    80000040:	4ac28293          	addi	t0,t0,1196 # 800004e8 <_load_start>
    80000044:	00000317          	auipc	t1,0x0
    80000048:	fbc30313          	addi	t1,t1,-68 # 80000000 <_fw_start>
    8000004c:	0062b023          	sd	t1,0(t0)

0000000080000050 <_relocate>:
    80000050:	00000297          	auipc	t0,0x0
    80000054:	4a028293          	addi	t0,t0,1184 # 800004f0 <_link_start>
    80000058:	0002b283          	ld	t0,0(t0)
    8000005c:	00000317          	auipc	t1,0x0
    80000060:	49c30313          	addi	t1,t1,1180 # 800004f8 <_link_end>
    80000064:	00033303          	ld	t1,0(t1)
    80000068:	00000397          	auipc	t2,0x0
    8000006c:	48038393          	addi	t2,t2,1152 # 800004e8 <_load_start>
    80000070:	0003b383          	ld	t2,0(t2)
    80000074:	40530e33          	sub	t3,t1,t0
    80000078:	9e1e                	add	t3,t3,t2
    8000007a:	12728363          	beq	t0,t2,800001a0 <_relocate_done>
    8000007e:	00000e97          	auipc	t4,0x0
    80000082:	122e8e93          	addi	t4,t4,290 # 800001a0 <_relocate_done>
    80000086:	407e8eb3          	sub	t4,t4,t2
    8000008a:	9e96                	add	t4,t4,t0
    8000008c:	0653c663          	blt	t2,t0,800000f8 <_relocate_copy_to_upper>

0000000080000090 <_relocate_copy_to_lower>:
    80000090:	0463db63          	bge	t2,t1,800000e6 <_relocate_copy_to_lower_loop>
    80000094:	00000e17          	auipc	t3,0x0
    80000098:	444e0e13          	addi	t3,t3,1092 # 800004d8 <_relocate_lottery>
    8000009c:	007e4563          	blt	t3,t2,800000a6 <_relocate_copy_to_lower+0x16>
    800000a0:	006e5363          	bge	t3,t1,800000a6 <_relocate_copy_to_lower+0x16>
    800000a4:	a171                	j	80000530 <_start_hang>
    800000a6:	00000e17          	auipc	t3,0x0
    800000aa:	43ae0e13          	addi	t3,t3,1082 # 800004e0 <_boot_status>
    800000ae:	007e4563          	blt	t3,t2,800000b8 <_relocate_copy_to_lower+0x28>
    800000b2:	006e5363          	bge	t3,t1,800000b8 <_relocate_copy_to_lower+0x28>
    800000b6:	a9ad                	j	80000530 <_start_hang>
    800000b8:	00000e17          	auipc	t3,0x0
    800000bc:	f98e0e13          	addi	t3,t3,-104 # 80000050 <_relocate>
    800000c0:	00000f17          	auipc	t5,0x0
    800000c4:	0e0f0f13          	addi	t5,t5,224 # 800001a0 <_relocate_done>
    800000c8:	007e4563          	blt	t3,t2,800000d2 <_relocate_copy_to_lower+0x42>
    800000cc:	006e5363          	bge	t3,t1,800000d2 <_relocate_copy_to_lower+0x42>
    800000d0:	a185                	j	80000530 <_start_hang>
    800000d2:	007f4563          	blt	t5,t2,800000dc <_relocate_copy_to_lower+0x4c>
    800000d6:	006f5363          	bge	t5,t1,800000dc <_relocate_copy_to_lower+0x4c>
    800000da:	a999                	j	80000530 <_start_hang>
    800000dc:	01c3c563          	blt	t2,t3,800000e6 <_relocate_copy_to_lower_loop>
    800000e0:	01e3d363          	bge	t2,t5,800000e6 <_relocate_copy_to_lower_loop>
    800000e4:	a1b1                	j	80000530 <_start_hang>

00000000800000e6 <_relocate_copy_to_lower_loop>:
    800000e6:	0003be03          	ld	t3,0(t2)
    800000ea:	01c2b023          	sd	t3,0(t0)
    800000ee:	02a1                	addi	t0,t0,8
    800000f0:	03a1                	addi	t2,t2,8
    800000f2:	fe62cae3          	blt	t0,t1,800000e6 <_relocate_copy_to_lower_loop>
    800000f6:	8e82                	jr	t4

00000000800000f8 <_relocate_copy_to_upper>:
    800000f8:	05c2db63          	bge	t0,t3,8000014e <_relocate_copy_to_upper_loop>
    800000fc:	00000397          	auipc	t2,0x0
    80000100:	3dc38393          	addi	t2,t2,988 # 800004d8 <_relocate_lottery>
    80000104:	0053c563          	blt	t2,t0,8000010e <_relocate_copy_to_upper+0x16>
    80000108:	01c3d363          	bge	t2,t3,8000010e <_relocate_copy_to_upper+0x16>
    8000010c:	a115                	j	80000530 <_start_hang>
    8000010e:	00000397          	auipc	t2,0x0
    80000112:	3d238393          	addi	t2,t2,978 # 800004e0 <_boot_status>
    80000116:	0053c563          	blt	t2,t0,80000120 <_relocate_copy_to_upper+0x28>
    8000011a:	01c3d363          	bge	t2,t3,80000120 <_relocate_copy_to_upper+0x28>
    8000011e:	a909                	j	80000530 <_start_hang>
    80000120:	00000397          	auipc	t2,0x0
    80000124:	f3038393          	addi	t2,t2,-208 # 80000050 <_relocate>
    80000128:	00000f17          	auipc	t5,0x0
    8000012c:	078f0f13          	addi	t5,t5,120 # 800001a0 <_relocate_done>
    80000130:	0053c563          	blt	t2,t0,8000013a <_relocate_copy_to_upper+0x42>
    80000134:	01c3d363          	bge	t2,t3,8000013a <_relocate_copy_to_upper+0x42>
    80000138:	aee5                	j	80000530 <_start_hang>
    8000013a:	005f4563          	blt	t5,t0,80000144 <_relocate_copy_to_upper+0x4c>
    8000013e:	01cf5363          	bge	t5,t3,80000144 <_relocate_copy_to_upper+0x4c>
    80000142:	a6fd                	j	80000530 <_start_hang>
    80000144:	0072c563          	blt	t0,t2,8000014e <_relocate_copy_to_upper_loop>
    80000148:	01e2d363          	bge	t0,t5,8000014e <_relocate_copy_to_upper_loop>
    8000014c:	a6d5                	j	80000530 <_start_hang>

000000008000014e <_relocate_copy_to_upper_loop>:
    8000014e:	1e61                	addi	t3,t3,-8
    80000150:	1361                	addi	t1,t1,-8
    80000152:	000e3383          	ld	t2,0(t3)
    80000156:	00733023          	sd	t2,0(t1)
    8000015a:	fe62cae3          	blt	t0,t1,8000014e <_relocate_copy_to_upper_loop>
    8000015e:	8e82                	jr	t4

0000000080000160 <_wait_relocate_copy_done>:
    80000160:	00000297          	auipc	t0,0x0
    80000164:	ea028293          	addi	t0,t0,-352 # 80000000 <_fw_start>
    80000168:	00000317          	auipc	t1,0x0
    8000016c:	38830313          	addi	t1,t1,904 # 800004f0 <_link_start>
    80000170:	00033303          	ld	t1,0(t1)
    80000174:	2c628463          	beq	t0,t1,8000043c <_wait_for_boot_hart>
    80000178:	00000397          	auipc	t2,0x0
    8000017c:	36838393          	addi	t2,t2,872 # 800004e0 <_boot_status>
    80000180:	00000e17          	auipc	t3,0x0
    80000184:	2bce0e13          	addi	t3,t3,700 # 8000043c <_wait_for_boot_hart>
    80000188:	405e0e33          	sub	t3,t3,t0
    8000018c:	9e1a                	add	t3,t3,t1
    8000018e:	4e85                	li	t4,1
    80000190:	0003bf03          	ld	t5,0(t2)
    80000194:	0001                	nop
    80000196:	0001                	nop
    80000198:	0001                	nop
    8000019a:	ffdf4ae3          	blt	t5,t4,8000018e <_wait_relocate_copy_done+0x2e>
    8000019e:	8e02                	jr	t3

00000000800001a0 <_relocate_done>:
    800001a0:	00000297          	auipc	t0,0x0
    800001a4:	34028293          	addi	t0,t0,832 # 800004e0 <_boot_status>
    800001a8:	00000317          	auipc	t1,0x0
    800001ac:	34830313          	addi	t1,t1,840 # 800004f0 <_link_start>
    800001b0:	00033303          	ld	t1,0(t1)
    800001b4:	00000397          	auipc	t2,0x0
    800001b8:	33438393          	addi	t2,t2,820 # 800004e8 <_load_start>
    800001bc:	0003b383          	ld	t2,0(t2)
    800001c0:	406282b3          	sub	t0,t0,t1
    800001c4:	929e                	add	t0,t0,t2
    800001c6:	4305                	li	t1,1
    800001c8:	0062b023          	sd	t1,0(t0)
    800001cc:	0330000f          	fence	rw,rw
    800001d0:	4081                	li	ra,0
    800001d2:	44e000ef          	jal	ra,80000620 <_reset_regs>
    800001d6:	00013a17          	auipc	s4,0x13
    800001da:	e2aa0a13          	addi	s4,s4,-470 # 80013000 <fdt_nop_node+0x3e9e>
    800001de:	00015a97          	auipc	s5,0x15
    800001e2:	322a8a93          	addi	s5,s5,802 # 80015500 <fdt_nop_node+0x639e>

00000000800001e6 <_bss_zero>:
    800001e6:	000a3023          	sd	zero,0(s4)
    800001ea:	0a21                	addi	s4,s4,8
    800001ec:	ff5a4de3          	blt	s4,s5,800001e6 <_bss_zero>
    800001f0:	00000a17          	auipc	s4,0x0
    800001f4:	340a0a13          	addi	s4,s4,832 # 80000530 <_start_hang>
    800001f8:	305a1073          	csrw	mtvec,s4
    800001fc:	00016a17          	auipc	s4,0x16
    80000200:	e04a0a13          	addi	s4,s4,-508 # 80016000 <fdt_nop_node+0x6e9e>
    80000204:	6a89                	lui	s5,0x2
    80000206:	015a0133          	add	sp,s4,s5
    8000020a:	00050433          	add	s0,a0,zero
    8000020e:	000584b3          	add	s1,a1,zero
    80000212:	00060933          	add	s2,a2,zero
    80000216:	000689b3          	add	s3,a3,zero
    8000021a:	00070a33          	add	s4,a4,zero
    8000021e:	44a000ef          	jal	ra,80000668 <fw_save_info>
    80000222:	00040533          	add	a0,s0,zero
    80000226:	000485b3          	add	a1,s1,zero
    8000022a:	00090633          	add	a2,s2,zero
    8000022e:	000986b3          	add	a3,s3,zero
    80000232:	000a0733          	add	a4,s4,zero
    80000236:	00050433          	add	s0,a0,zero
    8000023a:	000584b3          	add	s1,a1,zero
    8000023e:	00060933          	add	s2,a2,zero
    80000242:	42e000ef          	jal	ra,80000670 <fw_prev_arg1>
    80000246:	00050333          	add	t1,a0,zero
    8000024a:	00040533          	add	a0,s0,zero
    8000024e:	000485b3          	add	a1,s1,zero
    80000252:	00090633          	add	a2,s2,zero
    80000256:	00030463          	beqz	t1,8000025e <_prev_arg1_override_done>
    8000025a:	000305b3          	add	a1,t1,zero

000000008000025e <_prev_arg1_override_done>:
    8000025e:	00050433          	add	s0,a0,zero
    80000262:	000584b3          	add	s1,a1,zero
    80000266:	00060933          	add	s2,a2,zero
    8000026a:	000689b3          	add	s3,a3,zero
    8000026e:	00070a33          	add	s4,a4,zero
    80000272:	66f030ef          	jal	ra,800040e0 <fw_platform_init>
    80000276:	000502b3          	add	t0,a0,zero
    8000027a:	00040533          	add	a0,s0,zero
    8000027e:	000485b3          	add	a1,s1,zero
    80000282:	00090633          	add	a2,s2,zero
    80000286:	000986b3          	add	a3,s3,zero
    8000028a:	000a0733          	add	a4,s4,zero
    8000028e:	000285b3          	add	a1,t0,zero
    80000292:	00012717          	auipc	a4,0x12
    80000296:	e5670713          	addi	a4,a4,-426 # 800120e8 <fdt_nop_node+0x2f86>
    8000029a:	05076b83          	lwu	s7,80(a4)
    8000029e:	05476c03          	lwu	s8,84(a4)
    800002a2:	00016217          	auipc	tp,0x16
    800002a6:	d5e20213          	addi	tp,tp,-674 # 80016000 <fdt_nop_node+0x6e9e>
    800002aa:	038b87b3          	mul	a5,s7,s8
    800002ae:	923e                	add	tp,tp,a5
    800002b0:	00020e33          	add	t3,tp,zero
    800002b4:	4385                	li	t2,1
    800002b6:	4301                	li	t1,0

00000000800002b8 <_scratch_init>:
    800002b8:	000e0233          	add	tp,t3,zero
    800002bc:	026c07b3          	mul	a5,s8,t1
    800002c0:	40f20233          	sub	tp,tp,a5
    800002c4:	6785                	lui	a5,0x1
    800002c6:	40f20233          	sub	tp,tp,a5
    800002ca:	00000717          	auipc	a4,0x0
    800002ce:	d3670713          	addi	a4,a4,-714 # 80000000 <_fw_start>
    800002d2:	00016797          	auipc	a5,0x16
    800002d6:	d2e78793          	addi	a5,a5,-722 # 80016000 <fdt_nop_node+0x6e9e>
    800002da:	038b82b3          	mul	t0,s7,s8
    800002de:	9796                	add	a5,a5,t0
    800002e0:	8f99                	sub	a5,a5,a4
    800002e2:	00e23023          	sd	a4,0(tp) # 0 <_fw_start-0x80000000>
    800002e6:	00f23423          	sd	a5,8(tp) # 8 <_fw_start-0x7ffffff8>
    800002ea:	00050433          	add	s0,a0,zero
    800002ee:	000584b3          	add	s1,a1,zero
    800002f2:	00060933          	add	s2,a2,zero
    800002f6:	382000ef          	jal	ra,80000678 <fw_next_arg1>
    800002fa:	00a23823          	sd	a0,16(tp) # 10 <_fw_start-0x7ffffff0>
    800002fe:	00040533          	add	a0,s0,zero
    80000302:	000485b3          	add	a1,s1,zero
    80000306:	00090633          	add	a2,s2,zero
    8000030a:	00050433          	add	s0,a0,zero
    8000030e:	000584b3          	add	s1,a1,zero
    80000312:	00060933          	add	s2,a2,zero
    80000316:	36a000ef          	jal	ra,80000680 <fw_next_addr>
    8000031a:	00a23c23          	sd	a0,24(tp) # 18 <_fw_start-0x7fffffe8>
    8000031e:	00040533          	add	a0,s0,zero
    80000322:	000485b3          	add	a1,s1,zero
    80000326:	00090633          	add	a2,s2,zero
    8000032a:	00050433          	add	s0,a0,zero
    8000032e:	000584b3          	add	s1,a1,zero
    80000332:	00060933          	add	s2,a2,zero
    80000336:	35a000ef          	jal	ra,80000690 <fw_next_mode>
    8000033a:	02a23023          	sd	a0,32(tp) # 20 <_fw_start-0x7fffffe0>
    8000033e:	00040533          	add	a0,s0,zero
    80000342:	000485b3          	add	a1,s1,zero
    80000346:	00090633          	add	a2,s2,zero
    8000034a:	00000717          	auipc	a4,0x0
    8000034e:	10a70713          	addi	a4,a4,266 # 80000454 <_start_warm>
    80000352:	02e23423          	sd	a4,40(tp) # 28 <_fw_start-0x7fffffd8>
    80000356:	00012717          	auipc	a4,0x12
    8000035a:	d9270713          	addi	a4,a4,-622 # 800120e8 <fdt_nop_node+0x2f86>
    8000035e:	02e23823          	sd	a4,48(tp) # 30 <_fw_start-0x7fffffd0>
    80000362:	00000717          	auipc	a4,0x0
    80000366:	19e70713          	addi	a4,a4,414 # 80000500 <_hartid_to_scratch>
    8000036a:	02e23c23          	sd	a4,56(tp) # 38 <_fw_start-0x7fffffc8>
    8000036e:	04023023          	sd	zero,64(tp) # 40 <_fw_start-0x7fffffc0>
    80000372:	00050433          	add	s0,a0,zero
    80000376:	000584b3          	add	s1,a1,zero
    8000037a:	00060933          	add	s2,a2,zero
    8000037e:	31a000ef          	jal	ra,80000698 <fw_options>
    80000382:	04a23423          	sd	a0,72(tp) # 48 <_fw_start-0x7fffffb8>
    80000386:	00040533          	add	a0,s0,zero
    8000038a:	000485b3          	add	a1,s1,zero
    8000038e:	00090633          	add	a2,s2,zero
    80000392:	931e                	add	t1,t1,t2
    80000394:	f37342e3          	blt	t1,s7,800002b8 <_scratch_init>
    80000398:	c9c1                	beqz	a1,80000428 <_fdt_reloc_done>
    8000039a:	56e1                	li	a3,-8
    8000039c:	0ff00713          	li	a4,255
    800003a0:	00050433          	add	s0,a0,zero
    800003a4:	000584b3          	add	s1,a1,zero
    800003a8:	00060933          	add	s2,a2,zero
    800003ac:	2cc000ef          	jal	ra,80000678 <fw_next_arg1>
    800003b0:	00050333          	add	t1,a0,zero
    800003b4:	00040533          	add	a0,s0,zero
    800003b8:	000485b3          	add	a1,s1,zero
    800003bc:	00090633          	add	a2,s2,zero
    800003c0:	06030463          	beqz	t1,80000428 <_fdt_reloc_done>
    800003c4:	06b30263          	beq	t1,a1,80000428 <_fdt_reloc_done>
    800003c8:	00d37333          	and	t1,t1,a3
    800003cc:	000582b3          	add	t0,a1,zero
    800003d0:	00d2f2b3          	and	t0,t0,a3
    800003d4:	0042e383          	lwu	t2,4(t0)
    800003d8:	00038e33          	add	t3,t2,zero
    800003dc:	010e5e13          	srli	t3,t3,0x10
    800003e0:	00ee7e33          	and	t3,t3,a4
    800003e4:	0e22                	slli	t3,t3,0x8
    800003e6:	00038eb3          	add	t4,t2,zero
    800003ea:	008ede93          	srli	t4,t4,0x8
    800003ee:	00eefeb3          	and	t4,t4,a4
    800003f2:	0ec2                	slli	t4,t4,0x10
    800003f4:	00038f33          	add	t5,t2,zero
    800003f8:	00ef7f33          	and	t5,t5,a4
    800003fc:	0f62                	slli	t5,t5,0x18
    800003fe:	0183d393          	srli	t2,t2,0x18
    80000402:	00e3f3b3          	and	t2,t2,a4
    80000406:	01c3e3b3          	or	t2,t2,t3
    8000040a:	01d3e3b3          	or	t2,t2,t4
    8000040e:	01e3e3b3          	or	t2,t2,t5
    80000412:	939a                	add	t2,t2,t1
    80000414:	00735a63          	bge	t1,t2,80000428 <_fdt_reloc_done>

0000000080000418 <_fdt_reloc_again>:
    80000418:	0002be03          	ld	t3,0(t0)
    8000041c:	01c33023          	sd	t3,0(t1)
    80000420:	02a1                	addi	t0,t0,8
    80000422:	0321                	addi	t1,t1,8
    80000424:	fe734ae3          	blt	t1,t2,80000418 <_fdt_reloc_again>

0000000080000428 <_fdt_reloc_done>:
    80000428:	4289                	li	t0,2
    8000042a:	00000317          	auipc	t1,0x0
    8000042e:	0b630313          	addi	t1,t1,182 # 800004e0 <_boot_status>
    80000432:	00533023          	sd	t0,0(t1)
    80000436:	0330000f          	fence	rw,rw
    8000043a:	a829                	j	80000454 <_start_warm>

000000008000043c <_wait_for_boot_hart>:
    8000043c:	4289                	li	t0,2
    8000043e:	00000317          	auipc	t1,0x0
    80000442:	0a230313          	addi	t1,t1,162 # 800004e0 <_boot_status>
    80000446:	00033303          	ld	t1,0(t1)
    8000044a:	0001                	nop
    8000044c:	0001                	nop
    8000044e:	0001                	nop
    80000450:	fe6296e3          	bne	t0,t1,8000043c <_wait_for_boot_hart>

0000000080000454 <_start_warm>:
    80000454:	4081                	li	ra,0
    80000456:	1ca000ef          	jal	ra,80000620 <_reset_regs>
    8000045a:	30401073          	csrw	mie,zero
    8000045e:	34401073          	csrw	mip,zero
    80000462:	00012717          	auipc	a4,0x12
    80000466:	c8670713          	addi	a4,a4,-890 # 800120e8 <fdt_nop_node+0x2f86>
    8000046a:	05076b83          	lwu	s7,80(a4)
    8000046e:	05476c03          	lwu	s8,84(a4)
    80000472:	06873c83          	ld	s9,104(a4)
    80000476:	f1402b73          	csrr	s6,mhartid
    8000047a:	000c8e63          	beqz	s9,80000496 <_start_warm+0x42>
    8000047e:	4701                	li	a4,0
    80000480:	000ce783          	lwu	a5,0(s9)
    80000484:	01678763          	beq	a5,s6,80000492 <_start_warm+0x3e>
    80000488:	0c91                	addi	s9,s9,4
    8000048a:	0705                	addi	a4,a4,1
    8000048c:	ff774ae3          	blt	a4,s7,80000480 <_start_warm+0x2c>
    80000490:	577d                	li	a4,-1
    80000492:	00070b33          	add	s6,a4,zero
    80000496:	097b5d63          	bge	s6,s7,80000530 <_start_hang>
    8000049a:	00016217          	auipc	tp,0x16
    8000049e:	b6620213          	addi	tp,tp,-1178 # 80016000 <fdt_nop_node+0x6e9e>
    800004a2:	038b87b3          	mul	a5,s7,s8
    800004a6:	923e                	add	tp,tp,a5
    800004a8:	036c07b3          	mul	a5,s8,s6
    800004ac:	40f20233          	sub	tp,tp,a5
    800004b0:	6785                	lui	a5,0x1
    800004b2:	40f20233          	sub	tp,tp,a5
    800004b6:	34021073          	csrw	mscratch,tp
    800004ba:	00020133          	add	sp,tp,zero
    800004be:	00000717          	auipc	a4,0x0
    800004c2:	08270713          	addi	a4,a4,130 # 80000540 <_trap_handler>
    800004c6:	30571073          	csrw	mtvec,a4
    800004ca:	34002573          	csrr	a0,mscratch
    800004ce:	1d4000ef          	jal	ra,800006a2 <sbi_init>
    800004d2:	a8b9                	j	80000530 <_start_hang>
    800004d4:	00000013          	nop

00000000800004d8 <_relocate_lottery>:
	...

00000000800004e0 <_boot_status>:
	...

00000000800004e8 <_load_start>:
    800004e8:	0000                	unimp
    800004ea:	8000                	0x8000
    800004ec:	0000                	unimp
	...

00000000800004f0 <_link_start>:
    800004f0:	0000                	unimp
    800004f2:	8000                	0x8000
    800004f4:	0000                	unimp
	...

00000000800004f8 <_link_end>:
    800004f8:	6f48                	ld	a0,152(a4)
    800004fa:	80ad                	srli	s1,s1,0xb
    800004fc:	0000                	unimp
	...

0000000080000500 <_hartid_to_scratch>:
    80000500:	00012397          	auipc	t2,0x12
    80000504:	be838393          	addi	t2,t2,-1048 # 800120e8 <fdt_nop_node+0x2f86>
    80000508:	0543e283          	lwu	t0,84(t2)
    8000050c:	0503e383          	lwu	t2,80(t2)
    80000510:	40b383b3          	sub	t2,t2,a1
    80000514:	025383b3          	mul	t2,t2,t0
    80000518:	00016317          	auipc	t1,0x16
    8000051c:	ae830313          	addi	t1,t1,-1304 # 80016000 <fdt_nop_node+0x6e9e>
    80000520:	931e                	add	t1,t1,t2
    80000522:	6385                	lui	t2,0x1
    80000524:	40730533          	sub	a0,t1,t2
    80000528:	8082                	ret
    8000052a:	0001                	nop
    8000052c:	00000013          	nop

0000000080000530 <_start_hang>:
    80000530:	10500073          	wfi
    80000534:	bff5                	j	80000530 <_start_hang>
    80000536:	0001                	nop
    80000538:	00058533          	add	a0,a1,zero
    8000053c:	8082                	ret
    8000053e:	0001                	nop

0000000080000540 <_trap_handler>:
    80000540:	34021273          	csrrw	tp,mscratch,tp
    80000544:	04523023          	sd	t0,64(tp) # 40 <_fw_start-0x7fffffc0>
    80000548:	300022f3          	csrr	t0,mstatus
    8000054c:	00b2d293          	srli	t0,t0,0xb
    80000550:	0032f293          	andi	t0,t0,3
    80000554:	0032c293          	xori	t0,t0,3
    80000558:	00028763          	beqz	t0,80000566 <_trap_handler_m_mode>

000000008000055c <_trap_handler_s_mode>:
    8000055c:	000102b3          	add	t0,sp,zero
    80000560:	ee820113          	addi	sp,tp,-280 # fffffffffffffee8 <fdt_nop_node+0xffffffff7fff0d86>
    80000564:	a029                	j	8000056e <_trap_handler_all_mode>

0000000080000566 <_trap_handler_m_mode>:
    80000566:	000102b3          	add	t0,sp,zero
    8000056a:	ee810113          	addi	sp,sp,-280

000000008000056e <_trap_handler_all_mode>:
    8000056e:	e816                	sd	t0,16(sp)
    80000570:	04023283          	ld	t0,64(tp) # 40 <_fw_start-0x7fffffc0>
    80000574:	f416                	sd	t0,40(sp)
    80000576:	34021273          	csrrw	tp,mscratch,tp
    8000057a:	341022f3          	csrr	t0,mepc
    8000057e:	e216                	sd	t0,256(sp)
    80000580:	300022f3          	csrr	t0,mstatus
    80000584:	e616                	sd	t0,264(sp)
    80000586:	ea02                	sd	zero,272(sp)
    80000588:	e002                	sd	zero,0(sp)
    8000058a:	e406                	sd	ra,8(sp)
    8000058c:	ec0e                	sd	gp,24(sp)
    8000058e:	f012                	sd	tp,32(sp)
    80000590:	f81a                	sd	t1,48(sp)
    80000592:	fc1e                	sd	t2,56(sp)
    80000594:	e0a2                	sd	s0,64(sp)
    80000596:	e4a6                	sd	s1,72(sp)
    80000598:	e8aa                	sd	a0,80(sp)
    8000059a:	ecae                	sd	a1,88(sp)
    8000059c:	f0b2                	sd	a2,96(sp)
    8000059e:	f4b6                	sd	a3,104(sp)
    800005a0:	f8ba                	sd	a4,112(sp)
    800005a2:	fcbe                	sd	a5,120(sp)
    800005a4:	e142                	sd	a6,128(sp)
    800005a6:	e546                	sd	a7,136(sp)
    800005a8:	e94a                	sd	s2,144(sp)
    800005aa:	ed4e                	sd	s3,152(sp)
    800005ac:	f152                	sd	s4,160(sp)
    800005ae:	f556                	sd	s5,168(sp)
    800005b0:	f95a                	sd	s6,176(sp)
    800005b2:	fd5e                	sd	s7,184(sp)
    800005b4:	e1e2                	sd	s8,192(sp)
    800005b6:	e5e6                	sd	s9,200(sp)
    800005b8:	e9ea                	sd	s10,208(sp)
    800005ba:	edee                	sd	s11,216(sp)
    800005bc:	f1f2                	sd	t3,224(sp)
    800005be:	f5f6                	sd	t4,232(sp)
    800005c0:	f9fa                	sd	t5,240(sp)
    800005c2:	fdfe                	sd	t6,248(sp)
    800005c4:	00010533          	add	a0,sp,zero
    800005c8:	41f020ef          	jal	ra,800031e6 <sbi_trap_handler>
    800005cc:	60a2                	ld	ra,8(sp)
    800005ce:	61e2                	ld	gp,24(sp)
    800005d0:	7202                	ld	tp,32(sp)
    800005d2:	7342                	ld	t1,48(sp)
    800005d4:	73e2                	ld	t2,56(sp)
    800005d6:	6406                	ld	s0,64(sp)
    800005d8:	64a6                	ld	s1,72(sp)
    800005da:	6546                	ld	a0,80(sp)
    800005dc:	65e6                	ld	a1,88(sp)
    800005de:	7606                	ld	a2,96(sp)
    800005e0:	76a6                	ld	a3,104(sp)
    800005e2:	7746                	ld	a4,112(sp)
    800005e4:	77e6                	ld	a5,120(sp)
    800005e6:	680a                	ld	a6,128(sp)
    800005e8:	68aa                	ld	a7,136(sp)
    800005ea:	694a                	ld	s2,144(sp)
    800005ec:	69ea                	ld	s3,152(sp)
    800005ee:	7a0a                	ld	s4,160(sp)
    800005f0:	7aaa                	ld	s5,168(sp)
    800005f2:	7b4a                	ld	s6,176(sp)
    800005f4:	7bea                	ld	s7,184(sp)
    800005f6:	6c0e                	ld	s8,192(sp)
    800005f8:	6cae                	ld	s9,200(sp)
    800005fa:	6d4e                	ld	s10,208(sp)
    800005fc:	6dee                	ld	s11,216(sp)
    800005fe:	7e0e                	ld	t3,224(sp)
    80000600:	7eae                	ld	t4,232(sp)
    80000602:	7f4e                	ld	t5,240(sp)
    80000604:	7fee                	ld	t6,248(sp)
    80000606:	6292                	ld	t0,256(sp)
    80000608:	34129073          	csrw	mepc,t0
    8000060c:	62b2                	ld	t0,264(sp)
    8000060e:	30029073          	csrw	mstatus,t0
    80000612:	72a2                	ld	t0,40(sp)
    80000614:	6142                	ld	sp,16(sp)
    80000616:	30200073          	mret
    8000061a:	0001                	nop
    8000061c:	00000013          	nop

0000000080000620 <_reset_regs>:
    80000620:	0000100f          	fence.i
    80000624:	4101                	li	sp,0
    80000626:	4181                	li	gp,0
    80000628:	4201                	li	tp,0
    8000062a:	4281                	li	t0,0
    8000062c:	4301                	li	t1,0
    8000062e:	4381                	li	t2,0
    80000630:	4401                	li	s0,0
    80000632:	4481                	li	s1,0
    80000634:	4681                	li	a3,0
    80000636:	4701                	li	a4,0
    80000638:	4781                	li	a5,0
    8000063a:	4801                	li	a6,0
    8000063c:	4881                	li	a7,0
    8000063e:	4901                	li	s2,0
    80000640:	4981                	li	s3,0
    80000642:	4a01                	li	s4,0
    80000644:	4a81                	li	s5,0
    80000646:	4b01                	li	s6,0
    80000648:	4b81                	li	s7,0
    8000064a:	4c01                	li	s8,0
    8000064c:	4c81                	li	s9,0
    8000064e:	4d01                	li	s10,0
    80000650:	4d81                	li	s11,0
    80000652:	4e01                	li	t3,0
    80000654:	4e81                	li	t4,0
    80000656:	4f01                	li	t5,0
    80000658:	4f81                	li	t6,0
    8000065a:	34005073          	csrwi	mscratch,0
    8000065e:	8082                	ret

0000000080000660 <fw_boot_hart>:
    80000660:	557d                	li	a0,-1
    80000662:	8082                	ret
    80000664:	00000013          	nop

0000000080000668 <fw_save_info>:
    80000668:	8082                	ret
    8000066a:	0001                	nop
    8000066c:	00000013          	nop

0000000080000670 <fw_prev_arg1>:
    80000670:	00000533          	add	a0,zero,zero
    80000674:	8082                	ret
    80000676:	0001                	nop

0000000080000678 <fw_next_arg1>:
    80000678:	4110051b          	addiw	a0,zero,1041
    8000067c:	0556                	slli	a0,a0,0x15
    8000067e:	8082                	ret

0000000080000680 <fw_next_addr>:
    80000680:	00200517          	auipc	a0,0x200
    80000684:	98050513          	addi	a0,a0,-1664 # 80200000 <fdt_nop_node+0x1f0e9e>
    80000688:	8082                	ret
    8000068a:	0001                	nop
    8000068c:	00000013          	nop

0000000080000690 <fw_next_mode>:
    80000690:	4505                	li	a0,1
    80000692:	8082                	ret
    80000694:	00000013          	nop

0000000080000698 <fw_options>:
    80000698:	00000533          	add	a0,zero,zero
    8000069c:	8082                	ret
    8000069e:	0000                	unimp
	...

00000000800006a2 <sbi_init>:
    800006a2:	7115                	addi	sp,sp,-224
    800006a4:	e9a2                	sd	s0,208(sp)
    800006a6:	ed86                	sd	ra,216(sp)
    800006a8:	e5a6                	sd	s1,200(sp)
    800006aa:	e1ca                	sd	s2,192(sp)
    800006ac:	fd4e                	sd	s3,184(sp)
    800006ae:	f952                	sd	s4,176(sp)
    800006b0:	f556                	sd	s5,168(sp)
    800006b2:	f15a                	sd	s6,160(sp)
    800006b4:	ed5e                	sd	s7,152(sp)
    800006b6:	e962                	sd	s8,144(sp)
    800006b8:	e566                	sd	s9,136(sp)
    800006ba:	1180                	addi	s0,sp,224
    800006bc:	f14029f3          	csrr	s3,mhartid
    800006c0:	07f00793          	li	a5,127
    800006c4:	0009891b          	sext.w	s2,s3
    800006c8:	5127e963          	bltu	a5,s2,80000bda <sbi_init+0x538>
    800006cc:	84aa                	mv	s1,a0
    800006ce:	03154503          	lbu	a0,49(a0)
    800006d2:	0304c783          	lbu	a5,48(s1)
    800006d6:	0324c583          	lbu	a1,50(s1)
    800006da:	0334c603          	lbu	a2,51(s1)
    800006de:	0344c683          	lbu	a3,52(s1)
    800006e2:	0522                	slli	a0,a0,0x8
    800006e4:	8d5d                	or	a0,a0,a5
    800006e6:	0354c703          	lbu	a4,53(s1)
    800006ea:	05c2                	slli	a1,a1,0x10
    800006ec:	8dc9                	or	a1,a1,a0
    800006ee:	0364c783          	lbu	a5,54(s1)
    800006f2:	0662                	slli	a2,a2,0x18
    800006f4:	0374c503          	lbu	a0,55(s1)
    800006f8:	8e4d                	or	a2,a2,a1
    800006fa:	1682                	slli	a3,a3,0x20
    800006fc:	8ed1                	or	a3,a3,a2
    800006fe:	1722                	slli	a4,a4,0x28
    80000700:	8f55                	or	a4,a4,a3
    80000702:	17c2                	slli	a5,a5,0x30
    80000704:	8fd9                	or	a5,a5,a4
    80000706:	1562                	slli	a0,a0,0x38
    80000708:	8d5d                	or	a0,a0,a5
    8000070a:	4c050863          	beqz	a0,80000bda <sbi_init+0x538>
    8000070e:	05154703          	lbu	a4,81(a0)
    80000712:	05054683          	lbu	a3,80(a0)
    80000716:	05254783          	lbu	a5,82(a0)
    8000071a:	05354a03          	lbu	s4,83(a0)
    8000071e:	0722                	slli	a4,a4,0x8
    80000720:	8f55                	or	a4,a4,a3
    80000722:	07c2                	slli	a5,a5,0x10
    80000724:	8fd9                	or	a5,a5,a4
    80000726:	0a62                	slli	s4,s4,0x18
    80000728:	85ca                	mv	a1,s2
    8000072a:	00fa6a33          	or	s4,s4,a5
    8000072e:	494010ef          	jal	ra,80001bc2 <sbi_platform_hart_index>
    80000732:	2a01                	sext.w	s4,s4
    80000734:	2501                	sext.w	a0,a0
    80000736:	4b457263          	bgeu	a0,s4,80000bda <sbi_init+0x538>
    8000073a:	4585                	li	a1,1
    8000073c:	00013517          	auipc	a0,0x13
    80000740:	8c450513          	addi	a0,a0,-1852 # 80013000 <fdt_nop_node+0x3e9e>
    80000744:	2fe040ef          	jal	ra,80004a42 <atomic_xchg>
    80000748:	44050363          	beqz	a0,80000b8e <sbi_init+0x4ec>
    8000074c:	0314c783          	lbu	a5,49(s1)
    80000750:	0304c583          	lbu	a1,48(s1)
    80000754:	0324c603          	lbu	a2,50(s1)
    80000758:	0334c683          	lbu	a3,51(s1)
    8000075c:	0344c703          	lbu	a4,52(s1)
    80000760:	07a2                	slli	a5,a5,0x8
    80000762:	8fcd                	or	a5,a5,a1
    80000764:	0354ca83          	lbu	s5,53(s1)
    80000768:	0642                	slli	a2,a2,0x10
    8000076a:	8e5d                	or	a2,a2,a5
    8000076c:	06e2                	slli	a3,a3,0x18
    8000076e:	0364c783          	lbu	a5,54(s1)
    80000772:	8ed1                	or	a3,a3,a2
    80000774:	1702                	slli	a4,a4,0x20
    80000776:	0374c603          	lbu	a2,55(s1)
    8000077a:	8f55                	or	a4,a4,a3
    8000077c:	1aa2                	slli	s5,s5,0x28
    8000077e:	00eaeab3          	or	s5,s5,a4
    80000782:	17c2                	slli	a5,a5,0x30
    80000784:	0157e7b3          	or	a5,a5,s5
    80000788:	03861a93          	slli	s5,a2,0x38
    8000078c:	00faeab3          	or	s5,s5,a5
    80000790:	30402cf3          	csrr	s9,mie
    80000794:	30446073          	csrsi	mie,8
    80000798:	00013517          	auipc	a0,0x13
    8000079c:	88050513          	addi	a0,a0,-1920 # 80013018 <fdt_nop_node+0x3eb6>
    800007a0:	420040ef          	jal	ra,80004bc0 <spin_lock>
    800007a4:	40695793          	srai	a5,s2,0x6
    800007a8:	078e                	slli	a5,a5,0x3
    800007aa:	00013c17          	auipc	s8,0x13
    800007ae:	946c0c13          	addi	s8,s8,-1722 # 800130f0 <fdt_nop_node+0x3f8e>
    800007b2:	9c3e                	add	s8,s8,a5
    800007b4:	000c3783          	ld	a5,0(s8)
    800007b8:	00013b17          	auipc	s6,0x13
    800007bc:	858b0b13          	addi	s6,s6,-1960 # 80013010 <fdt_nop_node+0x3eae>
    800007c0:	4b85                	li	s7,1
    800007c2:	012b9bb3          	sll	s7,s7,s2
    800007c6:	000b3703          	ld	a4,0(s6)
    800007ca:	0177e7b3          	or	a5,a5,s7
    800007ce:	00fc3023          	sd	a5,0(s8)
    800007d2:	00013a17          	auipc	s4,0x13
    800007d6:	846a0a13          	addi	s4,s4,-1978 # 80013018 <fdt_nop_node+0x3eb6>
    800007da:	e315                	bnez	a4,800007fe <sbi_init+0x15c>
    800007dc:	8552                	mv	a0,s4
    800007de:	400040ef          	jal	ra,80004bde <spin_unlock>
    800007e2:	10500073          	wfi
    800007e6:	344027f3          	csrr	a5,mip
    800007ea:	8ba1                	andi	a5,a5,8
    800007ec:	dbfd                	beqz	a5,800007e2 <sbi_init+0x140>
    800007ee:	8552                	mv	a0,s4
    800007f0:	3d0040ef          	jal	ra,80004bc0 <spin_lock>
    800007f4:	000b3783          	ld	a5,0(s6)
    800007f8:	d3f5                	beqz	a5,800007dc <sbi_init+0x13a>
    800007fa:	000c3783          	ld	a5,0(s8)
    800007fe:	fffbcb93          	not	s7,s7
    80000802:	0177f7b3          	and	a5,a5,s7
    80000806:	00013517          	auipc	a0,0x13
    8000080a:	81250513          	addi	a0,a0,-2030 # 80013018 <fdt_nop_node+0x3eb6>
    8000080e:	00fc3023          	sd	a5,0(s8)
    80000812:	3cc040ef          	jal	ra,80004bde <spin_unlock>
    80000816:	304c9073          	csrw	mie,s9
    8000081a:	080a8363          	beqz	s5,800008a0 <sbi_init+0x1fe>
    8000081e:	059ac783          	lbu	a5,89(s5) # 2059 <_fw_start-0x7fffdfa7>
    80000822:	058ac703          	lbu	a4,88(s5)
    80000826:	05aac503          	lbu	a0,90(s5)
    8000082a:	05bac583          	lbu	a1,91(s5)
    8000082e:	05cac603          	lbu	a2,92(s5)
    80000832:	07a2                	slli	a5,a5,0x8
    80000834:	8fd9                	or	a5,a5,a4
    80000836:	05dac683          	lbu	a3,93(s5)
    8000083a:	0542                	slli	a0,a0,0x10
    8000083c:	8d5d                	or	a0,a0,a5
    8000083e:	05eac703          	lbu	a4,94(s5)
    80000842:	05e2                	slli	a1,a1,0x18
    80000844:	8dc9                	or	a1,a1,a0
    80000846:	05fac783          	lbu	a5,95(s5)
    8000084a:	1602                	slli	a2,a2,0x20
    8000084c:	8e4d                	or	a2,a2,a1
    8000084e:	16a2                	slli	a3,a3,0x28
    80000850:	8ed1                	or	a3,a3,a2
    80000852:	1742                	slli	a4,a4,0x30
    80000854:	8f55                	or	a4,a4,a3
    80000856:	17e2                	slli	a5,a5,0x38
    80000858:	8fd9                	or	a5,a5,a4
    8000085a:	0717c803          	lbu	a6,113(a5) # 1071 <_fw_start-0x7fffef8f>
    8000085e:	0707c703          	lbu	a4,112(a5)
    80000862:	0727c503          	lbu	a0,114(a5)
    80000866:	0737c583          	lbu	a1,115(a5)
    8000086a:	0747c603          	lbu	a2,116(a5)
    8000086e:	0822                	slli	a6,a6,0x8
    80000870:	0757c683          	lbu	a3,117(a5)
    80000874:	00e86833          	or	a6,a6,a4
    80000878:	0542                	slli	a0,a0,0x10
    8000087a:	0767c703          	lbu	a4,118(a5)
    8000087e:	01056533          	or	a0,a0,a6
    80000882:	05e2                	slli	a1,a1,0x18
    80000884:	0777c783          	lbu	a5,119(a5)
    80000888:	8dc9                	or	a1,a1,a0
    8000088a:	1602                	slli	a2,a2,0x20
    8000088c:	8e4d                	or	a2,a2,a1
    8000088e:	16a2                	slli	a3,a3,0x28
    80000890:	8ed1                	or	a3,a3,a2
    80000892:	1742                	slli	a4,a4,0x30
    80000894:	8f55                	or	a4,a4,a3
    80000896:	17e2                	slli	a5,a5,0x38
    80000898:	8fd9                	or	a5,a5,a4
    8000089a:	c399                	beqz	a5,800008a0 <sbi_init+0x1fe>
    8000089c:	854a                	mv	a0,s2
    8000089e:	9782                	jalr	a5
    800008a0:	00012b17          	auipc	s6,0x12
    800008a4:	768b0b13          	addi	s6,s6,1896 # 80013008 <fdt_nop_node+0x3ea6>
    800008a8:	000b3783          	ld	a5,0(s6)
    800008ac:	32078763          	beqz	a5,80000bda <sbi_init+0x538>
    800008b0:	4601                	li	a2,0
    800008b2:	85ca                	mv	a1,s2
    800008b4:	8526                	mv	a0,s1
    800008b6:	3fc070ef          	jal	ra,80007cb2 <sbi_hsm_init>
    800008ba:	32051063          	bnez	a0,80000bda <sbi_init+0x538>
    800008be:	640a8a63          	beqz	s5,80000f12 <sbi_init+0x870>
    800008c2:	059ac783          	lbu	a5,89(s5)
    800008c6:	058ac703          	lbu	a4,88(s5)
    800008ca:	05aac803          	lbu	a6,90(s5)
    800008ce:	05bac583          	lbu	a1,91(s5)
    800008d2:	05cac603          	lbu	a2,92(s5)
    800008d6:	07a2                	slli	a5,a5,0x8
    800008d8:	8fd9                	or	a5,a5,a4
    800008da:	05dac683          	lbu	a3,93(s5)
    800008de:	0842                	slli	a6,a6,0x10
    800008e0:	00f86833          	or	a6,a6,a5
    800008e4:	05eac703          	lbu	a4,94(s5)
    800008e8:	05e2                	slli	a1,a1,0x18
    800008ea:	0105e5b3          	or	a1,a1,a6
    800008ee:	05fac783          	lbu	a5,95(s5)
    800008f2:	1602                	slli	a2,a2,0x20
    800008f4:	8e4d                	or	a2,a2,a1
    800008f6:	16a2                	slli	a3,a3,0x28
    800008f8:	8ed1                	or	a3,a3,a2
    800008fa:	1742                	slli	a4,a4,0x30
    800008fc:	8f55                	or	a4,a4,a3
    800008fe:	17e2                	slli	a5,a5,0x38
    80000900:	8fd9                	or	a5,a5,a4
    80000902:	0017c883          	lbu	a7,1(a5)
    80000906:	0007c703          	lbu	a4,0(a5)
    8000090a:	0027c803          	lbu	a6,2(a5)
    8000090e:	0037c583          	lbu	a1,3(a5)
    80000912:	0047c603          	lbu	a2,4(a5)
    80000916:	08a2                	slli	a7,a7,0x8
    80000918:	0057c683          	lbu	a3,5(a5)
    8000091c:	00e8e8b3          	or	a7,a7,a4
    80000920:	0842                	slli	a6,a6,0x10
    80000922:	0067c703          	lbu	a4,6(a5)
    80000926:	01186833          	or	a6,a6,a7
    8000092a:	05e2                	slli	a1,a1,0x18
    8000092c:	0077c783          	lbu	a5,7(a5)
    80000930:	0105e5b3          	or	a1,a1,a6
    80000934:	1602                	slli	a2,a2,0x20
    80000936:	8e4d                	or	a2,a2,a1
    80000938:	16a2                	slli	a3,a3,0x28
    8000093a:	8ed1                	or	a3,a3,a2
    8000093c:	1742                	slli	a4,a4,0x30
    8000093e:	8f55                	or	a4,a4,a3
    80000940:	17e2                	slli	a5,a5,0x38
    80000942:	8fd9                	or	a5,a5,a4
    80000944:	c781                	beqz	a5,8000094c <sbi_init+0x2aa>
    80000946:	9782                	jalr	a5
    80000948:	28051963          	bnez	a0,80000bda <sbi_init+0x538>
    8000094c:	4601                	li	a2,0
    8000094e:	85ca                	mv	a1,s2
    80000950:	8526                	mv	a0,s1
    80000952:	794060ef          	jal	ra,800070e6 <sbi_hart_init>
    80000956:	28051263          	bnez	a0,80000bda <sbi_init+0x538>
    8000095a:	059ac783          	lbu	a5,89(s5)
    8000095e:	058ac703          	lbu	a4,88(s5)
    80000962:	05aac803          	lbu	a6,90(s5)
    80000966:	05bac583          	lbu	a1,91(s5)
    8000096a:	05cac603          	lbu	a2,92(s5)
    8000096e:	07a2                	slli	a5,a5,0x8
    80000970:	8fd9                	or	a5,a5,a4
    80000972:	05dac683          	lbu	a3,93(s5)
    80000976:	0842                	slli	a6,a6,0x10
    80000978:	00f86833          	or	a6,a6,a5
    8000097c:	05eac703          	lbu	a4,94(s5)
    80000980:	05e2                	slli	a1,a1,0x18
    80000982:	0105e5b3          	or	a1,a1,a6
    80000986:	05fac783          	lbu	a5,95(s5)
    8000098a:	1602                	slli	a2,a2,0x20
    8000098c:	8e4d                	or	a2,a2,a1
    8000098e:	16a2                	slli	a3,a3,0x28
    80000990:	8ed1                	or	a3,a3,a2
    80000992:	1742                	slli	a4,a4,0x30
    80000994:	8f55                	or	a4,a4,a3
    80000996:	17e2                	slli	a5,a5,0x38
    80000998:	8fd9                	or	a5,a5,a4
    8000099a:	0597c883          	lbu	a7,89(a5)
    8000099e:	0587c703          	lbu	a4,88(a5)
    800009a2:	05a7c803          	lbu	a6,90(a5)
    800009a6:	05b7c583          	lbu	a1,91(a5)
    800009aa:	05c7c603          	lbu	a2,92(a5)
    800009ae:	08a2                	slli	a7,a7,0x8
    800009b0:	05d7c683          	lbu	a3,93(a5)
    800009b4:	00e8e8b3          	or	a7,a7,a4
    800009b8:	0842                	slli	a6,a6,0x10
    800009ba:	05e7c703          	lbu	a4,94(a5)
    800009be:	01186833          	or	a6,a6,a7
    800009c2:	05e2                	slli	a1,a1,0x18
    800009c4:	05f7c783          	lbu	a5,95(a5)
    800009c8:	0105e5b3          	or	a1,a1,a6
    800009cc:	1602                	slli	a2,a2,0x20
    800009ce:	8e4d                	or	a2,a2,a1
    800009d0:	16a2                	slli	a3,a3,0x28
    800009d2:	8ed1                	or	a3,a3,a2
    800009d4:	1742                	slli	a4,a4,0x30
    800009d6:	8f55                	or	a4,a4,a3
    800009d8:	17e2                	slli	a5,a5,0x38
    800009da:	8fd9                	or	a5,a5,a4
    800009dc:	c781                	beqz	a5,800009e4 <sbi_init+0x342>
    800009de:	9782                	jalr	a5
    800009e0:	1e051d63          	bnez	a0,80000bda <sbi_init+0x538>
    800009e4:	4581                	li	a1,0
    800009e6:	8526                	mv	a0,s1
    800009e8:	637000ef          	jal	ra,8000181e <sbi_ipi_init>
    800009ec:	1e051763          	bnez	a0,80000bda <sbi_init+0x538>
    800009f0:	4581                	li	a1,0
    800009f2:	8526                	mv	a0,s1
    800009f4:	14c020ef          	jal	ra,80002b40 <sbi_tlb_init>
    800009f8:	1e051163          	bnez	a0,80000bda <sbi_init+0x538>
    800009fc:	4581                	li	a1,0
    800009fe:	8526                	mv	a0,s1
    80000a00:	187010ef          	jal	ra,80002386 <sbi_timer_init>
    80000a04:	1c051b63          	bnez	a0,80000bda <sbi_init+0x538>
    80000a08:	080a8763          	beqz	s5,80000a96 <sbi_init+0x3f4>
    80000a0c:	059ac783          	lbu	a5,89(s5)
    80000a10:	058ac703          	lbu	a4,88(s5)
    80000a14:	05aac803          	lbu	a6,90(s5)
    80000a18:	05bac583          	lbu	a1,91(s5)
    80000a1c:	05cac603          	lbu	a2,92(s5)
    80000a20:	07a2                	slli	a5,a5,0x8
    80000a22:	8fd9                	or	a5,a5,a4
    80000a24:	05dac683          	lbu	a3,93(s5)
    80000a28:	0842                	slli	a6,a6,0x10
    80000a2a:	00f86833          	or	a6,a6,a5
    80000a2e:	05eac703          	lbu	a4,94(s5)
    80000a32:	05e2                	slli	a1,a1,0x18
    80000a34:	0105e5b3          	or	a1,a1,a6
    80000a38:	05fac783          	lbu	a5,95(s5)
    80000a3c:	1602                	slli	a2,a2,0x20
    80000a3e:	8e4d                	or	a2,a2,a1
    80000a40:	16a2                	slli	a3,a3,0x28
    80000a42:	8ed1                	or	a3,a3,a2
    80000a44:	1742                	slli	a4,a4,0x30
    80000a46:	8f55                	or	a4,a4,a3
    80000a48:	17e2                	slli	a5,a5,0x38
    80000a4a:	8fd9                	or	a5,a5,a4
    80000a4c:	0097c883          	lbu	a7,9(a5)
    80000a50:	0087c703          	lbu	a4,8(a5)
    80000a54:	00a7c803          	lbu	a6,10(a5)
    80000a58:	00b7c583          	lbu	a1,11(a5)
    80000a5c:	00c7c603          	lbu	a2,12(a5)
    80000a60:	08a2                	slli	a7,a7,0x8
    80000a62:	00d7c683          	lbu	a3,13(a5)
    80000a66:	00e8e8b3          	or	a7,a7,a4
    80000a6a:	0842                	slli	a6,a6,0x10
    80000a6c:	00e7c703          	lbu	a4,14(a5)
    80000a70:	01186833          	or	a6,a6,a7
    80000a74:	05e2                	slli	a1,a1,0x18
    80000a76:	00f7c783          	lbu	a5,15(a5)
    80000a7a:	0105e5b3          	or	a1,a1,a6
    80000a7e:	1602                	slli	a2,a2,0x20
    80000a80:	8e4d                	or	a2,a2,a1
    80000a82:	16a2                	slli	a3,a3,0x28
    80000a84:	8ed1                	or	a3,a3,a2
    80000a86:	1742                	slli	a4,a4,0x30
    80000a88:	8f55                	or	a4,a4,a3
    80000a8a:	17e2                	slli	a5,a5,0x38
    80000a8c:	8fd9                	or	a5,a5,a4
    80000a8e:	c781                	beqz	a5,80000a96 <sbi_init+0x3f4>
    80000a90:	9782                	jalr	a5
    80000a92:	14051463          	bnez	a0,80000bda <sbi_init+0x538>
    80000a96:	000b3783          	ld	a5,0(s6)
    80000a9a:	85ca                	mv	a1,s2
    80000a9c:	8526                	mv	a0,s1
    80000a9e:	97a6                	add	a5,a5,s1
    80000aa0:	6398                	ld	a4,0(a5)
    80000aa2:	0705                	addi	a4,a4,1
    80000aa4:	e398                	sd	a4,0(a5)
    80000aa6:	1de070ef          	jal	ra,80007c84 <sbi_hsm_prepare_next_jump>
    80000aaa:	0214ce83          	lbu	t4,33(s1)
    80000aae:	0194ce03          	lbu	t3,25(s1)
    80000ab2:	0114c303          	lbu	t1,17(s1)
    80000ab6:	0204c603          	lbu	a2,32(s1)
    80000aba:	0184c683          	lbu	a3,24(s1)
    80000abe:	0104c783          	lbu	a5,16(s1)
    80000ac2:	0224ca83          	lbu	s5,34(s1)
    80000ac6:	01a4ca03          	lbu	s4,26(s1)
    80000aca:	0124c903          	lbu	s2,18(s1)
    80000ace:	0234c383          	lbu	t2,35(s1)
    80000ad2:	01b4c283          	lbu	t0,27(s1)
    80000ad6:	0134cf83          	lbu	t6,19(s1)
    80000ada:	0244cf03          	lbu	t5,36(s1)
    80000ade:	01c4c883          	lbu	a7,28(s1)
    80000ae2:	0144c803          	lbu	a6,20(s1)
    80000ae6:	0ea2                	slli	t4,t4,0x8
    80000ae8:	0e22                	slli	t3,t3,0x8
    80000aea:	0322                	slli	t1,t1,0x8
    80000aec:	00ceeeb3          	or	t4,t4,a2
    80000af0:	00de6e33          	or	t3,t3,a3
    80000af4:	00f36333          	or	t1,t1,a5
    80000af8:	0254c503          	lbu	a0,37(s1)
    80000afc:	01d4c583          	lbu	a1,29(s1)
    80000b00:	0154c703          	lbu	a4,21(s1)
    80000b04:	0ac2                	slli	s5,s5,0x10
    80000b06:	0a42                	slli	s4,s4,0x10
    80000b08:	0942                	slli	s2,s2,0x10
    80000b0a:	01daeab3          	or	s5,s5,t4
    80000b0e:	01ca6a33          	or	s4,s4,t3
    80000b12:	00696933          	or	s2,s2,t1
    80000b16:	0264c683          	lbu	a3,38(s1)
    80000b1a:	01e4c603          	lbu	a2,30(s1)
    80000b1e:	0164c783          	lbu	a5,22(s1)
    80000b22:	03e2                	slli	t2,t2,0x18
    80000b24:	02e2                	slli	t0,t0,0x18
    80000b26:	0fe2                	slli	t6,t6,0x18
    80000b28:	0274ce83          	lbu	t4,39(s1)
    80000b2c:	01f4ce03          	lbu	t3,31(s1)
    80000b30:	0174c303          	lbu	t1,23(s1)
    80000b34:	0153e3b3          	or	t2,t2,s5
    80000b38:	1f02                	slli	t5,t5,0x20
    80000b3a:	0142e2b3          	or	t0,t0,s4
    80000b3e:	1882                	slli	a7,a7,0x20
    80000b40:	012fefb3          	or	t6,t6,s2
    80000b44:	1802                	slli	a6,a6,0x20
    80000b46:	007f6f33          	or	t5,t5,t2
    80000b4a:	1522                	slli	a0,a0,0x28
    80000b4c:	0058e8b3          	or	a7,a7,t0
    80000b50:	15a2                	slli	a1,a1,0x28
    80000b52:	01f86833          	or	a6,a6,t6
    80000b56:	1722                	slli	a4,a4,0x28
    80000b58:	01e56533          	or	a0,a0,t5
    80000b5c:	0115e5b3          	or	a1,a1,a7
    80000b60:	01076733          	or	a4,a4,a6
    80000b64:	16c2                	slli	a3,a3,0x30
    80000b66:	1642                	slli	a2,a2,0x30
    80000b68:	17c2                	slli	a5,a5,0x30
    80000b6a:	8ec9                	or	a3,a3,a0
    80000b6c:	8e4d                	or	a2,a2,a1
    80000b6e:	8fd9                	or	a5,a5,a4
    80000b70:	1ee2                	slli	t4,t4,0x38
    80000b72:	1e62                	slli	t3,t3,0x38
    80000b74:	03831593          	slli	a1,t1,0x38
    80000b78:	02099513          	slli	a0,s3,0x20
    80000b7c:	4701                	li	a4,0
    80000b7e:	00dee6b3          	or	a3,t4,a3
    80000b82:	00ce6633          	or	a2,t3,a2
    80000b86:	8ddd                	or	a1,a1,a5
    80000b88:	9101                	srli	a0,a0,0x20
    80000b8a:	669060ef          	jal	ra,800079f2 <sbi_hart_switch_mode>
    80000b8e:	0314c583          	lbu	a1,49(s1)
    80000b92:	0304c783          	lbu	a5,48(s1)
    80000b96:	0324c603          	lbu	a2,50(s1)
    80000b9a:	0334c683          	lbu	a3,51(s1)
    80000b9e:	0344c703          	lbu	a4,52(s1)
    80000ba2:	05a2                	slli	a1,a1,0x8
    80000ba4:	8ddd                	or	a1,a1,a5
    80000ba6:	0354ca03          	lbu	s4,53(s1)
    80000baa:	0642                	slli	a2,a2,0x10
    80000bac:	8e4d                	or	a2,a2,a1
    80000bae:	0364c783          	lbu	a5,54(s1)
    80000bb2:	06e2                	slli	a3,a3,0x18
    80000bb4:	0374c583          	lbu	a1,55(s1)
    80000bb8:	8ed1                	or	a3,a3,a2
    80000bba:	1702                	slli	a4,a4,0x20
    80000bbc:	8f55                	or	a4,a4,a3
    80000bbe:	1a22                	slli	s4,s4,0x28
    80000bc0:	00ea6a33          	or	s4,s4,a4
    80000bc4:	17c2                	slli	a5,a5,0x30
    80000bc6:	0147e7b3          	or	a5,a5,s4
    80000bca:	8526                	mv	a0,s1
    80000bcc:	03859a13          	slli	s4,a1,0x38
    80000bd0:	00fa6a33          	or	s4,s4,a5
    80000bd4:	080010ef          	jal	ra,80001c54 <sbi_scratch_init>
    80000bd8:	c119                	beqz	a0,80000bde <sbi_init+0x53c>
    80000bda:	609060ef          	jal	ra,800079e2 <sbi_hart_hang>
    80000bde:	0000f597          	auipc	a1,0xf
    80000be2:	42258593          	addi	a1,a1,1058 # 80010000 <fdt_nop_node+0xe9e>
    80000be6:	4521                	li	a0,8
    80000be8:	196010ef          	jal	ra,80001d7e <sbi_scratch_alloc_offset>
    80000bec:	00012b17          	auipc	s6,0x12
    80000bf0:	41cb0b13          	addi	s6,s6,1052 # 80013008 <fdt_nop_node+0x3ea6>
    80000bf4:	00ab3023          	sd	a0,0(s6)
    80000bf8:	d16d                	beqz	a0,80000bda <sbi_init+0x538>
    80000bfa:	4605                	li	a2,1
    80000bfc:	85ca                	mv	a1,s2
    80000bfe:	8526                	mv	a0,s1
    80000c00:	0b2070ef          	jal	ra,80007cb2 <sbi_hsm_init>
    80000c04:	f979                	bnez	a0,80000bda <sbi_init+0x538>
    80000c06:	080a0463          	beqz	s4,80000c8e <sbi_init+0x5ec>
    80000c0a:	059a4783          	lbu	a5,89(s4)
    80000c0e:	058a4703          	lbu	a4,88(s4)
    80000c12:	05aa4503          	lbu	a0,90(s4)
    80000c16:	05ba4583          	lbu	a1,91(s4)
    80000c1a:	05ca4603          	lbu	a2,92(s4)
    80000c1e:	07a2                	slli	a5,a5,0x8
    80000c20:	8fd9                	or	a5,a5,a4
    80000c22:	05da4683          	lbu	a3,93(s4)
    80000c26:	0542                	slli	a0,a0,0x10
    80000c28:	8d5d                	or	a0,a0,a5
    80000c2a:	05ea4703          	lbu	a4,94(s4)
    80000c2e:	05e2                	slli	a1,a1,0x18
    80000c30:	8dc9                	or	a1,a1,a0
    80000c32:	05fa4783          	lbu	a5,95(s4)
    80000c36:	1602                	slli	a2,a2,0x20
    80000c38:	8e4d                	or	a2,a2,a1
    80000c3a:	16a2                	slli	a3,a3,0x28
    80000c3c:	8ed1                	or	a3,a3,a2
    80000c3e:	1742                	slli	a4,a4,0x30
    80000c40:	8f55                	or	a4,a4,a3
    80000c42:	17e2                	slli	a5,a5,0x38
    80000c44:	8fd9                	or	a5,a5,a4
    80000c46:	0017c803          	lbu	a6,1(a5)
    80000c4a:	0007c703          	lbu	a4,0(a5)
    80000c4e:	0027c503          	lbu	a0,2(a5)
    80000c52:	0037c583          	lbu	a1,3(a5)
    80000c56:	0047c603          	lbu	a2,4(a5)
    80000c5a:	0822                	slli	a6,a6,0x8
    80000c5c:	0057c683          	lbu	a3,5(a5)
    80000c60:	00e86833          	or	a6,a6,a4
    80000c64:	0542                	slli	a0,a0,0x10
    80000c66:	0067c703          	lbu	a4,6(a5)
    80000c6a:	01056533          	or	a0,a0,a6
    80000c6e:	05e2                	slli	a1,a1,0x18
    80000c70:	0077c783          	lbu	a5,7(a5)
    80000c74:	8dc9                	or	a1,a1,a0
    80000c76:	1602                	slli	a2,a2,0x20
    80000c78:	8e4d                	or	a2,a2,a1
    80000c7a:	16a2                	slli	a3,a3,0x28
    80000c7c:	8ed1                	or	a3,a3,a2
    80000c7e:	1742                	slli	a4,a4,0x30
    80000c80:	8f55                	or	a4,a4,a3
    80000c82:	17e2                	slli	a5,a5,0x38
    80000c84:	8fd9                	or	a5,a5,a4
    80000c86:	c781                	beqz	a5,80000c8e <sbi_init+0x5ec>
    80000c88:	4505                	li	a0,1
    80000c8a:	9782                	jalr	a5
    80000c8c:	f539                	bnez	a0,80000bda <sbi_init+0x538>
    80000c8e:	4605                	li	a2,1
    80000c90:	85ca                	mv	a1,s2
    80000c92:	8526                	mv	a0,s1
    80000c94:	452060ef          	jal	ra,800070e6 <sbi_hart_init>
    80000c98:	f129                	bnez	a0,80000bda <sbi_init+0x538>
    80000c9a:	8526                	mv	a0,s1
    80000c9c:	75f040ef          	jal	ra,80005bfa <sbi_console_init>
    80000ca0:	fd0d                	bnez	a0,80000bda <sbi_init+0x538>
    80000ca2:	080a0563          	beqz	s4,80000d2c <sbi_init+0x68a>
    80000ca6:	059a4783          	lbu	a5,89(s4)
    80000caa:	058a4703          	lbu	a4,88(s4)
    80000cae:	05aa4503          	lbu	a0,90(s4)
    80000cb2:	05ba4583          	lbu	a1,91(s4)
    80000cb6:	05ca4603          	lbu	a2,92(s4)
    80000cba:	07a2                	slli	a5,a5,0x8
    80000cbc:	8fd9                	or	a5,a5,a4
    80000cbe:	05da4683          	lbu	a3,93(s4)
    80000cc2:	0542                	slli	a0,a0,0x10
    80000cc4:	8d5d                	or	a0,a0,a5
    80000cc6:	05ea4703          	lbu	a4,94(s4)
    80000cca:	05e2                	slli	a1,a1,0x18
    80000ccc:	8dc9                	or	a1,a1,a0
    80000cce:	05fa4783          	lbu	a5,95(s4)
    80000cd2:	1602                	slli	a2,a2,0x20
    80000cd4:	8e4d                	or	a2,a2,a1
    80000cd6:	16a2                	slli	a3,a3,0x28
    80000cd8:	8ed1                	or	a3,a3,a2
    80000cda:	1742                	slli	a4,a4,0x30
    80000cdc:	8f55                	or	a4,a4,a3
    80000cde:	17e2                	slli	a5,a5,0x38
    80000ce0:	8fd9                	or	a5,a5,a4
    80000ce2:	0597c803          	lbu	a6,89(a5)
    80000ce6:	0587c703          	lbu	a4,88(a5)
    80000cea:	05a7c503          	lbu	a0,90(a5)
    80000cee:	05b7c583          	lbu	a1,91(a5)
    80000cf2:	05c7c603          	lbu	a2,92(a5)
    80000cf6:	0822                	slli	a6,a6,0x8
    80000cf8:	05d7c683          	lbu	a3,93(a5)
    80000cfc:	00e86833          	or	a6,a6,a4
    80000d00:	0542                	slli	a0,a0,0x10
    80000d02:	05e7c703          	lbu	a4,94(a5)
    80000d06:	01056533          	or	a0,a0,a6
    80000d0a:	05e2                	slli	a1,a1,0x18
    80000d0c:	05f7c783          	lbu	a5,95(a5)
    80000d10:	8dc9                	or	a1,a1,a0
    80000d12:	1602                	slli	a2,a2,0x20
    80000d14:	8e4d                	or	a2,a2,a1
    80000d16:	16a2                	slli	a3,a3,0x28
    80000d18:	8ed1                	or	a3,a3,a2
    80000d1a:	1742                	slli	a4,a4,0x30
    80000d1c:	8f55                	or	a4,a4,a3
    80000d1e:	17e2                	slli	a5,a5,0x38
    80000d20:	8fd9                	or	a5,a5,a4
    80000d22:	c789                	beqz	a5,80000d2c <sbi_init+0x68a>
    80000d24:	4505                	li	a0,1
    80000d26:	9782                	jalr	a5
    80000d28:	ea0519e3          	bnez	a0,80000bda <sbi_init+0x538>
    80000d2c:	4585                	li	a1,1
    80000d2e:	8526                	mv	a0,s1
    80000d30:	2ef000ef          	jal	ra,8000181e <sbi_ipi_init>
    80000d34:	ea0513e3          	bnez	a0,80000bda <sbi_init+0x538>
    80000d38:	4585                	li	a1,1
    80000d3a:	8526                	mv	a0,s1
    80000d3c:	605010ef          	jal	ra,80002b40 <sbi_tlb_init>
    80000d40:	e8051de3          	bnez	a0,80000bda <sbi_init+0x538>
    80000d44:	4585                	li	a1,1
    80000d46:	8526                	mv	a0,s1
    80000d48:	63e010ef          	jal	ra,80002386 <sbi_timer_init>
    80000d4c:	e80517e3          	bnez	a0,80000bda <sbi_init+0x538>
    80000d50:	5ee050ef          	jal	ra,8000633e <sbi_ecall_init>
    80000d54:	8aaa                	mv	s5,a0
    80000d56:	e80512e3          	bnez	a0,80000bda <sbi_init+0x538>
    80000d5a:	080a0563          	beqz	s4,80000de4 <sbi_init+0x742>
    80000d5e:	059a4783          	lbu	a5,89(s4)
    80000d62:	058a4703          	lbu	a4,88(s4)
    80000d66:	05aa4503          	lbu	a0,90(s4)
    80000d6a:	05ba4583          	lbu	a1,91(s4)
    80000d6e:	05ca4603          	lbu	a2,92(s4)
    80000d72:	07a2                	slli	a5,a5,0x8
    80000d74:	8fd9                	or	a5,a5,a4
    80000d76:	05da4683          	lbu	a3,93(s4)
    80000d7a:	0542                	slli	a0,a0,0x10
    80000d7c:	8d5d                	or	a0,a0,a5
    80000d7e:	05ea4703          	lbu	a4,94(s4)
    80000d82:	05e2                	slli	a1,a1,0x18
    80000d84:	8dc9                	or	a1,a1,a0
    80000d86:	05fa4783          	lbu	a5,95(s4)
    80000d8a:	1602                	slli	a2,a2,0x20
    80000d8c:	8e4d                	or	a2,a2,a1
    80000d8e:	16a2                	slli	a3,a3,0x28
    80000d90:	8ed1                	or	a3,a3,a2
    80000d92:	1742                	slli	a4,a4,0x30
    80000d94:	8f55                	or	a4,a4,a3
    80000d96:	17e2                	slli	a5,a5,0x38
    80000d98:	8fd9                	or	a5,a5,a4
    80000d9a:	0097c803          	lbu	a6,9(a5)
    80000d9e:	0087c703          	lbu	a4,8(a5)
    80000da2:	00a7c503          	lbu	a0,10(a5)
    80000da6:	00b7c583          	lbu	a1,11(a5)
    80000daa:	00c7c603          	lbu	a2,12(a5)
    80000dae:	0822                	slli	a6,a6,0x8
    80000db0:	00d7c683          	lbu	a3,13(a5)
    80000db4:	00e86833          	or	a6,a6,a4
    80000db8:	0542                	slli	a0,a0,0x10
    80000dba:	00e7c703          	lbu	a4,14(a5)
    80000dbe:	01056533          	or	a0,a0,a6
    80000dc2:	05e2                	slli	a1,a1,0x18
    80000dc4:	00f7c783          	lbu	a5,15(a5)
    80000dc8:	8dc9                	or	a1,a1,a0
    80000dca:	1602                	slli	a2,a2,0x20
    80000dcc:	8e4d                	or	a2,a2,a1
    80000dce:	16a2                	slli	a3,a3,0x28
    80000dd0:	8ed1                	or	a3,a3,a2
    80000dd2:	1742                	slli	a4,a4,0x30
    80000dd4:	8f55                	or	a4,a4,a3
    80000dd6:	17e2                	slli	a5,a5,0x38
    80000dd8:	8fd9                	or	a5,a5,a4
    80000dda:	c789                	beqz	a5,80000de4 <sbi_init+0x742>
    80000ddc:	4505                	li	a0,1
    80000dde:	9782                	jalr	a5
    80000de0:	de051de3          	bnez	a0,80000bda <sbi_init+0x538>
    80000de4:	0484c783          	lbu	a5,72(s1)
    80000de8:	8b85                	andi	a5,a5,1
    80000dea:	14078363          	beqz	a5,80000f30 <sbi_init+0x88e>
    80000dee:	0314c583          	lbu	a1,49(s1)
    80000df2:	0304c783          	lbu	a5,48(s1)
    80000df6:	0324c603          	lbu	a2,50(s1)
    80000dfa:	0334c683          	lbu	a3,51(s1)
    80000dfe:	0344c703          	lbu	a4,52(s1)
    80000e02:	05a2                	slli	a1,a1,0x8
    80000e04:	8ddd                	or	a1,a1,a5
    80000e06:	0354ca03          	lbu	s4,53(s1)
    80000e0a:	0642                	slli	a2,a2,0x10
    80000e0c:	8e4d                	or	a2,a2,a1
    80000e0e:	0364c783          	lbu	a5,54(s1)
    80000e12:	06e2                	slli	a3,a3,0x18
    80000e14:	0374c583          	lbu	a1,55(s1)
    80000e18:	8ed1                	or	a3,a3,a2
    80000e1a:	1702                	slli	a4,a4,0x20
    80000e1c:	8f55                	or	a4,a4,a3
    80000e1e:	1a22                	slli	s4,s4,0x28
    80000e20:	00ea6a33          	or	s4,s4,a4
    80000e24:	17c2                	slli	a5,a5,0x30
    80000e26:	0147e7b3          	or	a5,a5,s4
    80000e2a:	00012517          	auipc	a0,0x12
    80000e2e:	1ee50513          	addi	a0,a0,494 # 80013018 <fdt_nop_node+0x3eb6>
    80000e32:	03859a13          	slli	s4,a1,0x38
    80000e36:	00fa6a33          	or	s4,s4,a5
    80000e3a:	587030ef          	jal	ra,80004bc0 <spin_lock>
    80000e3e:	4785                	li	a5,1
    80000e40:	00012717          	auipc	a4,0x12
    80000e44:	1cf73823          	sd	a5,464(a4) # 80013010 <fdt_nop_node+0x3eae>
    80000e48:	00011c97          	auipc	s9,0x11
    80000e4c:	1c8c8c93          	addi	s9,s9,456 # 80012010 <fdt_nop_node+0x2eae>
    80000e50:	07f00c13          	li	s8,127
    80000e54:	00012b97          	auipc	s7,0x12
    80000e58:	29cb8b93          	addi	s7,s7,668 # 800130f0 <fdt_nop_node+0x3f8e>
    80000e5c:	a031                	j	80000e68 <sbi_init+0x7c6>
    80000e5e:	000ca783          	lw	a5,0(s9)
    80000e62:	2a85                	addiw	s5,s5,1
    80000e64:	0b57ef63          	bltu	a5,s5,80000f22 <sbi_init+0x880>
    80000e68:	000a851b          	sext.w	a0,s5
    80000e6c:	fea909e3          	beq	s2,a0,80000e5e <sbi_init+0x7bc>
    80000e70:	feac67e3          	bltu	s8,a0,80000e5e <sbi_init+0x7bc>
    80000e74:	406ad79b          	sraiw	a5,s5,0x6
    80000e78:	078e                	slli	a5,a5,0x3
    80000e7a:	97de                	add	a5,a5,s7
    80000e7c:	639c                	ld	a5,0(a5)
    80000e7e:	0157d7b3          	srl	a5,a5,s5
    80000e82:	8b85                	andi	a5,a5,1
    80000e84:	dfe9                	beqz	a5,80000e5e <sbi_init+0x7bc>
    80000e86:	fc0a0ce3          	beqz	s4,80000e5e <sbi_init+0x7bc>
    80000e8a:	059a4783          	lbu	a5,89(s4)
    80000e8e:	058a4703          	lbu	a4,88(s4)
    80000e92:	05aa4803          	lbu	a6,90(s4)
    80000e96:	05ba4583          	lbu	a1,91(s4)
    80000e9a:	05ca4603          	lbu	a2,92(s4)
    80000e9e:	07a2                	slli	a5,a5,0x8
    80000ea0:	8fd9                	or	a5,a5,a4
    80000ea2:	05da4683          	lbu	a3,93(s4)
    80000ea6:	0842                	slli	a6,a6,0x10
    80000ea8:	00f86833          	or	a6,a6,a5
    80000eac:	05ea4703          	lbu	a4,94(s4)
    80000eb0:	05e2                	slli	a1,a1,0x18
    80000eb2:	0105e5b3          	or	a1,a1,a6
    80000eb6:	05fa4783          	lbu	a5,95(s4)
    80000eba:	1602                	slli	a2,a2,0x20
    80000ebc:	8e4d                	or	a2,a2,a1
    80000ebe:	16a2                	slli	a3,a3,0x28
    80000ec0:	8ed1                	or	a3,a3,a2
    80000ec2:	1742                	slli	a4,a4,0x30
    80000ec4:	8f55                	or	a4,a4,a3
    80000ec6:	17e2                	slli	a5,a5,0x38
    80000ec8:	8fd9                	or	a5,a5,a4
    80000eca:	0697c883          	lbu	a7,105(a5)
    80000ece:	0687c703          	lbu	a4,104(a5)
    80000ed2:	06a7c803          	lbu	a6,106(a5)
    80000ed6:	06b7c583          	lbu	a1,107(a5)
    80000eda:	06c7c603          	lbu	a2,108(a5)
    80000ede:	08a2                	slli	a7,a7,0x8
    80000ee0:	06d7c683          	lbu	a3,109(a5)
    80000ee4:	00e8e8b3          	or	a7,a7,a4
    80000ee8:	0842                	slli	a6,a6,0x10
    80000eea:	06e7c703          	lbu	a4,110(a5)
    80000eee:	01186833          	or	a6,a6,a7
    80000ef2:	05e2                	slli	a1,a1,0x18
    80000ef4:	06f7c783          	lbu	a5,111(a5)
    80000ef8:	0105e5b3          	or	a1,a1,a6
    80000efc:	1602                	slli	a2,a2,0x20
    80000efe:	8e4d                	or	a2,a2,a1
    80000f00:	16a2                	slli	a3,a3,0x28
    80000f02:	8ed1                	or	a3,a3,a2
    80000f04:	1742                	slli	a4,a4,0x30
    80000f06:	8f55                	or	a4,a4,a3
    80000f08:	17e2                	slli	a5,a5,0x38
    80000f0a:	8fd9                	or	a5,a5,a4
    80000f0c:	dba9                	beqz	a5,80000e5e <sbi_init+0x7bc>
    80000f0e:	9782                	jalr	a5
    80000f10:	b7b9                	j	80000e5e <sbi_init+0x7bc>
    80000f12:	4601                	li	a2,0
    80000f14:	85ca                	mv	a1,s2
    80000f16:	8526                	mv	a0,s1
    80000f18:	1ce060ef          	jal	ra,800070e6 <sbi_hart_init>
    80000f1c:	ca051fe3          	bnez	a0,80000bda <sbi_init+0x538>
    80000f20:	b4d1                	j	800009e4 <sbi_init+0x342>
    80000f22:	00012517          	auipc	a0,0x12
    80000f26:	0f650513          	addi	a0,a0,246 # 80013018 <fdt_nop_node+0x3eb6>
    80000f2a:	4b5030ef          	jal	ra,80004bde <spin_unlock>
    80000f2e:	b6a5                	j	80000a96 <sbi_init+0x3f4>
    80000f30:	0314c503          	lbu	a0,49(s1)
    80000f34:	0304c783          	lbu	a5,48(s1)
    80000f38:	0324c583          	lbu	a1,50(s1)
    80000f3c:	0334c603          	lbu	a2,51(s1)
    80000f40:	0344c683          	lbu	a3,52(s1)
    80000f44:	0522                	slli	a0,a0,0x8
    80000f46:	8d5d                	or	a0,a0,a5
    80000f48:	0354c703          	lbu	a4,53(s1)
    80000f4c:	05c2                	slli	a1,a1,0x10
    80000f4e:	8dc9                	or	a1,a1,a0
    80000f50:	0364c783          	lbu	a5,54(s1)
    80000f54:	0662                	slli	a2,a2,0x18
    80000f56:	8e4d                	or	a2,a2,a1
    80000f58:	0374ca03          	lbu	s4,55(s1)
    80000f5c:	1682                	slli	a3,a3,0x20
    80000f5e:	8ed1                	or	a3,a3,a2
    80000f60:	1722                	slli	a4,a4,0x28
    80000f62:	8f55                	or	a4,a4,a3
    80000f64:	17c2                	slli	a5,a5,0x30
    80000f66:	8fd9                	or	a5,a5,a4
    80000f68:	0000f597          	auipc	a1,0xf
    80000f6c:	0a858593          	addi	a1,a1,168 # 80010010 <fdt_nop_node+0xeae>
    80000f70:	1a62                	slli	s4,s4,0x38
    80000f72:	0000f517          	auipc	a0,0xf
    80000f76:	0a650513          	addi	a0,a0,166 # 80010018 <fdt_nop_node+0xeb6>
    80000f7a:	00fa6a33          	or	s4,s4,a5
    80000f7e:	3dd040ef          	jal	ra,80005b5a <sbi_printf>
    80000f82:	0000f517          	auipc	a0,0xf
    80000f86:	0a650513          	addi	a0,a0,166 # 80010028 <fdt_nop_node+0xec6>
    80000f8a:	3d1040ef          	jal	ra,80005b5a <sbi_printf>
    80000f8e:	402030ef          	jal	ra,80004390 <misa_xlen>
    80000f92:	8c2a                	mv	s8,a0
    80000f94:	1aa05663          	blez	a0,80001140 <sbi_init+0xa9e>
    80000f98:	160a0963          	beqz	s4,8000110a <sbi_init+0xa68>
    80000f9c:	008a0593          	addi	a1,s4,8
    80000fa0:	0000f517          	auipc	a0,0xf
    80000fa4:	1d050513          	addi	a0,a0,464 # 80010170 <fdt_nop_node+0x100e>
    80000fa8:	3b3040ef          	jal	ra,80005b5a <sbi_printf>
    80000fac:	f2040b93          	addi	s7,s0,-224
    80000fb0:	08000613          	li	a2,128
    80000fb4:	8552                	mv	a0,s4
    80000fb6:	85de                	mv	a1,s7
    80000fb8:	309000ef          	jal	ra,80001ac0 <sbi_platform_get_features_str>
    80000fbc:	85de                	mv	a1,s7
    80000fbe:	0000f517          	auipc	a0,0xf
    80000fc2:	1d250513          	addi	a0,a0,466 # 80010190 <fdt_nop_node+0x102e>
    80000fc6:	395040ef          	jal	ra,80005b5a <sbi_printf>
    80000fca:	051a4703          	lbu	a4,81(s4)
    80000fce:	050a4683          	lbu	a3,80(s4)
    80000fd2:	052a4783          	lbu	a5,82(s4)
    80000fd6:	053a4583          	lbu	a1,83(s4)
    80000fda:	0722                	slli	a4,a4,0x8
    80000fdc:	8f55                	or	a4,a4,a3
    80000fde:	07c2                	slli	a5,a5,0x10
    80000fe0:	8fd9                	or	a5,a5,a4
    80000fe2:	05e2                	slli	a1,a1,0x18
    80000fe4:	8ddd                	or	a1,a1,a5
    80000fe6:	2581                	sext.w	a1,a1
    80000fe8:	0000f517          	auipc	a0,0xf
    80000fec:	1c850513          	addi	a0,a0,456 # 800101b0 <fdt_nop_node+0x104e>
    80000ff0:	36b040ef          	jal	ra,80005b5a <sbi_printf>
    80000ff4:	85ca                	mv	a1,s2
    80000ff6:	0000f517          	auipc	a0,0xf
    80000ffa:	1da50513          	addi	a0,a0,474 # 800101d0 <fdt_nop_node+0x106e>
    80000ffe:	35d040ef          	jal	ra,80005b5a <sbi_printf>
    80001002:	08000613          	li	a2,128
    80001006:	8562                	mv	a0,s8
    80001008:	85de                	mv	a1,s7
    8000100a:	48a030ef          	jal	ra,80004494 <misa_string>
    8000100e:	85de                	mv	a1,s7
    80001010:	0000f517          	auipc	a0,0xf
    80001014:	1e050513          	addi	a0,a0,480 # 800101f0 <fdt_nop_node+0x108e>
    80001018:	343040ef          	jal	ra,80005b5a <sbi_printf>
    8000101c:	08000613          	li	a2,128
    80001020:	8526                	mv	a0,s1
    80001022:	85de                	mv	a1,s7
    80001024:	7f5050ef          	jal	ra,80007018 <sbi_hart_get_features_str>
    80001028:	85de                	mv	a1,s7
    8000102a:	0000f517          	auipc	a0,0xf
    8000102e:	1e650513          	addi	a0,a0,486 # 80010210 <fdt_nop_node+0x10ae>
    80001032:	329040ef          	jal	ra,80005b5a <sbi_printf>
    80001036:	8526                	mv	a0,s1
    80001038:	5ef050ef          	jal	ra,80006e26 <sbi_hart_pmp_count>
    8000103c:	0005059b          	sext.w	a1,a0
    80001040:	0000f517          	auipc	a0,0xf
    80001044:	1f050513          	addi	a0,a0,496 # 80010230 <fdt_nop_node+0x10ce>
    80001048:	313040ef          	jal	ra,80005b5a <sbi_printf>
    8000104c:	0014c503          	lbu	a0,1(s1)
    80001050:	0004c783          	lbu	a5,0(s1)
    80001054:	0024c583          	lbu	a1,2(s1)
    80001058:	0034c603          	lbu	a2,3(s1)
    8000105c:	0044c683          	lbu	a3,4(s1)
    80001060:	0522                	slli	a0,a0,0x8
    80001062:	0054c703          	lbu	a4,5(s1)
    80001066:	8d5d                	or	a0,a0,a5
    80001068:	05c2                	slli	a1,a1,0x10
    8000106a:	0064c783          	lbu	a5,6(s1)
    8000106e:	8dc9                	or	a1,a1,a0
    80001070:	0662                	slli	a2,a2,0x18
    80001072:	0074c503          	lbu	a0,7(s1)
    80001076:	8e4d                	or	a2,a2,a1
    80001078:	1682                	slli	a3,a3,0x20
    8000107a:	8ed1                	or	a3,a3,a2
    8000107c:	1722                	slli	a4,a4,0x28
    8000107e:	8f55                	or	a4,a4,a3
    80001080:	17c2                	slli	a5,a5,0x30
    80001082:	8fd9                	or	a5,a5,a4
    80001084:	03851593          	slli	a1,a0,0x38
    80001088:	8ddd                	or	a1,a1,a5
    8000108a:	0000f517          	auipc	a0,0xf
    8000108e:	1c650513          	addi	a0,a0,454 # 80010250 <fdt_nop_node+0x10ee>
    80001092:	2c9040ef          	jal	ra,80005b5a <sbi_printf>
    80001096:	0094c603          	lbu	a2,9(s1)
    8000109a:	0084c503          	lbu	a0,8(s1)
    8000109e:	00a4c683          	lbu	a3,10(s1)
    800010a2:	00b4c703          	lbu	a4,11(s1)
    800010a6:	00c4c783          	lbu	a5,12(s1)
    800010aa:	0622                	slli	a2,a2,0x8
    800010ac:	8e49                	or	a2,a2,a0
    800010ae:	00d4c583          	lbu	a1,13(s1)
    800010b2:	06c2                	slli	a3,a3,0x10
    800010b4:	8ed1                	or	a3,a3,a2
    800010b6:	0762                	slli	a4,a4,0x18
    800010b8:	8f55                	or	a4,a4,a3
    800010ba:	1782                	slli	a5,a5,0x20
    800010bc:	8fd9                	or	a5,a5,a4
    800010be:	15a2                	slli	a1,a1,0x28
    800010c0:	8ddd                	or	a1,a1,a5
    800010c2:	05da                	slli	a1,a1,0x16
    800010c4:	9581                	srai	a1,a1,0x20
    800010c6:	0000f517          	auipc	a0,0xf
    800010ca:	1aa50513          	addi	a0,a0,426 # 80010270 <fdt_nop_node+0x110e>
    800010ce:	28d040ef          	jal	ra,80005b5a <sbi_printf>
    800010d2:	40f040ef          	jal	ra,80005ce0 <sbi_ecall_version_major>
    800010d6:	8a2a                	mv	s4,a0
    800010d8:	417040ef          	jal	ra,80005cee <sbi_ecall_version_minor>
    800010dc:	0005061b          	sext.w	a2,a0
    800010e0:	000a059b          	sext.w	a1,s4
    800010e4:	0000f517          	auipc	a0,0xf
    800010e8:	1ac50513          	addi	a0,a0,428 # 80010290 <fdt_nop_node+0x112e>
    800010ec:	26f040ef          	jal	ra,80005b5a <sbi_printf>
    800010f0:	0000f517          	auipc	a0,0xf
    800010f4:	05850513          	addi	a0,a0,88 # 80010148 <fdt_nop_node+0xfe6>
    800010f8:	263040ef          	jal	ra,80005b5a <sbi_printf>
    800010fc:	8526                	mv	a0,s1
    800010fe:	4ef050ef          	jal	ra,80006dec <sbi_hart_delegation_dump>
    80001102:	8526                	mv	a0,s1
    80001104:	56b050ef          	jal	ra,80006e6e <sbi_hart_pmp_dump>
    80001108:	b1dd                	j	80000dee <sbi_init+0x74c>
    8000110a:	0000f597          	auipc	a1,0xf
    8000110e:	1a658593          	addi	a1,a1,422 # 800102b0 <fdt_nop_node+0x114e>
    80001112:	0000f517          	auipc	a0,0xf
    80001116:	05e50513          	addi	a0,a0,94 # 80010170 <fdt_nop_node+0x100e>
    8000111a:	241040ef          	jal	ra,80005b5a <sbi_printf>
    8000111e:	f2040b93          	addi	s7,s0,-224
    80001122:	08000613          	li	a2,128
    80001126:	4501                	li	a0,0
    80001128:	85de                	mv	a1,s7
    8000112a:	197000ef          	jal	ra,80001ac0 <sbi_platform_get_features_str>
    8000112e:	85de                	mv	a1,s7
    80001130:	0000f517          	auipc	a0,0xf
    80001134:	06050513          	addi	a0,a0,96 # 80010190 <fdt_nop_node+0x102e>
    80001138:	223040ef          	jal	ra,80005b5a <sbi_printf>
    8000113c:	4581                	li	a1,0
    8000113e:	b56d                	j	80000fe8 <sbi_init+0x946>
    80001140:	85aa                	mv	a1,a0
    80001142:	0000f517          	auipc	a0,0xf
    80001146:	00e50513          	addi	a0,a0,14 # 80010150 <fdt_nop_node+0xfee>
    8000114a:	211040ef          	jal	ra,80005b5a <sbi_printf>
    8000114e:	b471                	j	80000bda <sbi_init+0x538>

0000000080001150 <sbi_init_count>:
    80001150:	1141                	addi	sp,sp,-16
    80001152:	e422                	sd	s0,8(sp)
    80001154:	0800                	addi	s0,sp,16
    80001156:	87aa                	mv	a5,a0
    80001158:	00012517          	auipc	a0,0x12
    8000115c:	eb053503          	ld	a0,-336(a0) # 80013008 <fdt_nop_node+0x3ea6>
    80001160:	cd11                	beqz	a0,8000117c <sbi_init_count+0x2c>
    80001162:	02079713          	slli	a4,a5,0x20
    80001166:	01d75793          	srli	a5,a4,0x1d
    8000116a:	00012717          	auipc	a4,0x12
    8000116e:	19670713          	addi	a4,a4,406 # 80013300 <fdt_nop_node+0x419e>
    80001172:	97ba                	add	a5,a5,a4
    80001174:	639c                	ld	a5,0(a5)
    80001176:	c791                	beqz	a5,80001182 <sbi_init_count+0x32>
    80001178:	953e                	add	a0,a0,a5
    8000117a:	6108                	ld	a0,0(a0)
    8000117c:	6422                	ld	s0,8(sp)
    8000117e:	0141                	addi	sp,sp,16
    80001180:	8082                	ret
    80001182:	6422                	ld	s0,8(sp)
    80001184:	4501                	li	a0,0
    80001186:	0141                	addi	sp,sp,16
    80001188:	8082                	ret

000000008000118a <sbi_exit>:
    8000118a:	7179                	addi	sp,sp,-48
    8000118c:	f022                	sd	s0,32(sp)
    8000118e:	e84a                	sd	s2,16(sp)
    80001190:	f406                	sd	ra,40(sp)
    80001192:	ec26                	sd	s1,24(sp)
    80001194:	e44e                	sd	s3,8(sp)
    80001196:	1800                	addi	s0,sp,48
    80001198:	892a                	mv	s2,a0
    8000119a:	f14025f3          	csrr	a1,mhartid
    8000119e:	03154503          	lbu	a0,49(a0)
    800011a2:	03094783          	lbu	a5,48(s2)
    800011a6:	03294603          	lbu	a2,50(s2)
    800011aa:	03394683          	lbu	a3,51(s2)
    800011ae:	03494703          	lbu	a4,52(s2)
    800011b2:	0522                	slli	a0,a0,0x8
    800011b4:	8d5d                	or	a0,a0,a5
    800011b6:	03594483          	lbu	s1,53(s2)
    800011ba:	0642                	slli	a2,a2,0x10
    800011bc:	8e49                	or	a2,a2,a0
    800011be:	03694783          	lbu	a5,54(s2)
    800011c2:	06e2                	slli	a3,a3,0x18
    800011c4:	03794503          	lbu	a0,55(s2)
    800011c8:	8ed1                	or	a3,a3,a2
    800011ca:	1702                	slli	a4,a4,0x20
    800011cc:	8f55                	or	a4,a4,a3
    800011ce:	14a2                	slli	s1,s1,0x28
    800011d0:	8cd9                	or	s1,s1,a4
    800011d2:	17c2                	slli	a5,a5,0x30
    800011d4:	8fc5                	or	a5,a5,s1
    800011d6:	03851493          	slli	s1,a0,0x38
    800011da:	8cdd                	or	s1,s1,a5
    800011dc:	1e048963          	beqz	s1,800013ce <sbi_exit+0x244>
    800011e0:	0514c703          	lbu	a4,81(s1)
    800011e4:	0504c683          	lbu	a3,80(s1)
    800011e8:	0524c783          	lbu	a5,82(s1)
    800011ec:	0534c983          	lbu	s3,83(s1)
    800011f0:	0722                	slli	a4,a4,0x8
    800011f2:	8f55                	or	a4,a4,a3
    800011f4:	07c2                	slli	a5,a5,0x10
    800011f6:	8fd9                	or	a5,a5,a4
    800011f8:	09e2                	slli	s3,s3,0x18
    800011fa:	2581                	sext.w	a1,a1
    800011fc:	8526                	mv	a0,s1
    800011fe:	00f9e9b3          	or	s3,s3,a5
    80001202:	1c1000ef          	jal	ra,80001bc2 <sbi_platform_hart_index>
    80001206:	2981                	sext.w	s3,s3
    80001208:	2501                	sext.w	a0,a0
    8000120a:	1d357263          	bgeu	a0,s3,800013ce <sbi_exit+0x244>
    8000120e:	0594c783          	lbu	a5,89(s1)
    80001212:	0584c703          	lbu	a4,88(s1)
    80001216:	05a4c503          	lbu	a0,90(s1)
    8000121a:	05b4c583          	lbu	a1,91(s1)
    8000121e:	05c4c603          	lbu	a2,92(s1)
    80001222:	07a2                	slli	a5,a5,0x8
    80001224:	8fd9                	or	a5,a5,a4
    80001226:	05d4c683          	lbu	a3,93(s1)
    8000122a:	0542                	slli	a0,a0,0x10
    8000122c:	8d5d                	or	a0,a0,a5
    8000122e:	05e4c703          	lbu	a4,94(s1)
    80001232:	05e2                	slli	a1,a1,0x18
    80001234:	8dc9                	or	a1,a1,a0
    80001236:	05f4c783          	lbu	a5,95(s1)
    8000123a:	1602                	slli	a2,a2,0x20
    8000123c:	8e4d                	or	a2,a2,a1
    8000123e:	16a2                	slli	a3,a3,0x28
    80001240:	8ed1                	or	a3,a3,a2
    80001242:	1742                	slli	a4,a4,0x30
    80001244:	8f55                	or	a4,a4,a3
    80001246:	17e2                	slli	a5,a5,0x38
    80001248:	8fd9                	or	a5,a5,a4
    8000124a:	0117c803          	lbu	a6,17(a5)
    8000124e:	0107c703          	lbu	a4,16(a5)
    80001252:	0127c503          	lbu	a0,18(a5)
    80001256:	0137c583          	lbu	a1,19(a5)
    8000125a:	0147c603          	lbu	a2,20(a5)
    8000125e:	0822                	slli	a6,a6,0x8
    80001260:	0157c683          	lbu	a3,21(a5)
    80001264:	00e86833          	or	a6,a6,a4
    80001268:	0542                	slli	a0,a0,0x10
    8000126a:	0167c703          	lbu	a4,22(a5)
    8000126e:	01056533          	or	a0,a0,a6
    80001272:	05e2                	slli	a1,a1,0x18
    80001274:	0177c783          	lbu	a5,23(a5)
    80001278:	8dc9                	or	a1,a1,a0
    8000127a:	1602                	slli	a2,a2,0x20
    8000127c:	8e4d                	or	a2,a2,a1
    8000127e:	16a2                	slli	a3,a3,0x28
    80001280:	8ed1                	or	a3,a3,a2
    80001282:	1742                	slli	a4,a4,0x30
    80001284:	8f55                	or	a4,a4,a3
    80001286:	17e2                	slli	a5,a5,0x38
    80001288:	8fd9                	or	a5,a5,a4
    8000128a:	c391                	beqz	a5,8000128e <sbi_exit+0x104>
    8000128c:	9782                	jalr	a5
    8000128e:	854a                	mv	a0,s2
    80001290:	270010ef          	jal	ra,80002500 <sbi_timer_exit>
    80001294:	854a                	mv	a0,s2
    80001296:	74a000ef          	jal	ra,800019e0 <sbi_ipi_exit>
    8000129a:	0594c883          	lbu	a7,89(s1)
    8000129e:	0584cf83          	lbu	t6,88(s1)
    800012a2:	05a4c803          	lbu	a6,90(s1)
    800012a6:	05b4c503          	lbu	a0,91(s1)
    800012aa:	05c4c583          	lbu	a1,92(s1)
    800012ae:	00889313          	slli	t1,a7,0x8
    800012b2:	01081693          	slli	a3,a6,0x10
    800012b6:	05d4c783          	lbu	a5,93(s1)
    800012ba:	01f36333          	or	t1,t1,t6
    800012be:	0066e333          	or	t1,a3,t1
    800012c2:	05e4c603          	lbu	a2,94(s1)
    800012c6:	01851693          	slli	a3,a0,0x18
    800012ca:	0066e6b3          	or	a3,a3,t1
    800012ce:	05f4c703          	lbu	a4,95(s1)
    800012d2:	02059313          	slli	t1,a1,0x20
    800012d6:	00d366b3          	or	a3,t1,a3
    800012da:	02879313          	slli	t1,a5,0x28
    800012de:	00d36333          	or	t1,t1,a3
    800012e2:	03061693          	slli	a3,a2,0x30
    800012e6:	0066e333          	or	t1,a3,t1
    800012ea:	03871693          	slli	a3,a4,0x38
    800012ee:	0066e6b3          	or	a3,a3,t1
    800012f2:	0616c383          	lbu	t2,97(a3)
    800012f6:	0606c303          	lbu	t1,96(a3)
    800012fa:	0626c283          	lbu	t0,98(a3)
    800012fe:	0636cf03          	lbu	t5,99(a3)
    80001302:	0646ce83          	lbu	t4,100(a3)
    80001306:	03a2                	slli	t2,t2,0x8
    80001308:	0656ce03          	lbu	t3,101(a3)
    8000130c:	0063e3b3          	or	t2,t2,t1
    80001310:	02c2                	slli	t0,t0,0x10
    80001312:	0666c303          	lbu	t1,102(a3)
    80001316:	0072e2b3          	or	t0,t0,t2
    8000131a:	0f62                	slli	t5,t5,0x18
    8000131c:	0676c683          	lbu	a3,103(a3)
    80001320:	005f6f33          	or	t5,t5,t0
    80001324:	1e82                	slli	t4,t4,0x20
    80001326:	01eeeeb3          	or	t4,t4,t5
    8000132a:	1e22                	slli	t3,t3,0x28
    8000132c:	01de6e33          	or	t3,t3,t4
    80001330:	1342                	slli	t1,t1,0x30
    80001332:	01c36333          	or	t1,t1,t3
    80001336:	16e2                	slli	a3,a3,0x38
    80001338:	0066e6b3          	or	a3,a3,t1
    8000133c:	c295                	beqz	a3,80001360 <sbi_exit+0x1d6>
    8000133e:	9682                	jalr	a3
    80001340:	0584cf83          	lbu	t6,88(s1)
    80001344:	0594c883          	lbu	a7,89(s1)
    80001348:	05a4c803          	lbu	a6,90(s1)
    8000134c:	05b4c503          	lbu	a0,91(s1)
    80001350:	05c4c583          	lbu	a1,92(s1)
    80001354:	05d4c783          	lbu	a5,93(s1)
    80001358:	05e4c603          	lbu	a2,94(s1)
    8000135c:	05f4c703          	lbu	a4,95(s1)
    80001360:	08a2                	slli	a7,a7,0x8
    80001362:	01f8e8b3          	or	a7,a7,t6
    80001366:	0842                	slli	a6,a6,0x10
    80001368:	01186833          	or	a6,a6,a7
    8000136c:	0562                	slli	a0,a0,0x18
    8000136e:	01056533          	or	a0,a0,a6
    80001372:	1582                	slli	a1,a1,0x20
    80001374:	8dc9                	or	a1,a1,a0
    80001376:	17a2                	slli	a5,a5,0x28
    80001378:	8fcd                	or	a5,a5,a1
    8000137a:	1642                	slli	a2,a2,0x30
    8000137c:	8e5d                	or	a2,a2,a5
    8000137e:	03871793          	slli	a5,a4,0x38
    80001382:	8fd1                	or	a5,a5,a2
    80001384:	0197c803          	lbu	a6,25(a5)
    80001388:	0187c703          	lbu	a4,24(a5)
    8000138c:	01a7c503          	lbu	a0,26(a5)
    80001390:	01b7c583          	lbu	a1,27(a5)
    80001394:	01c7c603          	lbu	a2,28(a5)
    80001398:	0822                	slli	a6,a6,0x8
    8000139a:	01d7c683          	lbu	a3,29(a5)
    8000139e:	00e86833          	or	a6,a6,a4
    800013a2:	0542                	slli	a0,a0,0x10
    800013a4:	01e7c703          	lbu	a4,30(a5)
    800013a8:	01056533          	or	a0,a0,a6
    800013ac:	05e2                	slli	a1,a1,0x18
    800013ae:	01f7c783          	lbu	a5,31(a5)
    800013b2:	8dc9                	or	a1,a1,a0
    800013b4:	1602                	slli	a2,a2,0x20
    800013b6:	8e4d                	or	a2,a2,a1
    800013b8:	16a2                	slli	a3,a3,0x28
    800013ba:	8ed1                	or	a3,a3,a2
    800013bc:	1742                	slli	a4,a4,0x30
    800013be:	8f55                	or	a4,a4,a3
    800013c0:	17e2                	slli	a5,a5,0x38
    800013c2:	8fd9                	or	a5,a5,a4
    800013c4:	c391                	beqz	a5,800013c8 <sbi_exit+0x23e>
    800013c6:	9782                	jalr	a5
    800013c8:	854a                	mv	a0,s2
    800013ca:	261060ef          	jal	ra,80007e2a <sbi_hsm_exit>
    800013ce:	614060ef          	jal	ra,800079e2 <sbi_hart_hang>

00000000800013d2 <sbi_ipi_process_smode>:
    800013d2:	1141                	addi	sp,sp,-16
    800013d4:	e422                	sd	s0,8(sp)
    800013d6:	0800                	addi	s0,sp,16
    800013d8:	34416073          	csrsi	mip,2
    800013dc:	6422                	ld	s0,8(sp)
    800013de:	0141                	addi	sp,sp,16
    800013e0:	8082                	ret

00000000800013e2 <sbi_ipi_process_halt>:
    800013e2:	1141                	addi	sp,sp,-16
    800013e4:	e022                	sd	s0,0(sp)
    800013e6:	e406                	sd	ra,8(sp)
    800013e8:	0800                	addi	s0,sp,16
    800013ea:	4585                	li	a1,1
    800013ec:	691060ef          	jal	ra,8000827c <sbi_hsm_hart_stop>
    800013f0:	60a2                	ld	ra,8(sp)
    800013f2:	6402                	ld	s0,0(sp)
    800013f4:	0141                	addi	sp,sp,16
    800013f6:	8082                	ret

00000000800013f8 <sbi_ipi_send.isra.0>:
    800013f8:	7139                	addi	sp,sp,-64
    800013fa:	f822                	sd	s0,48(sp)
    800013fc:	fc06                	sd	ra,56(sp)
    800013fe:	f426                	sd	s1,40(sp)
    80001400:	f04a                	sd	s2,32(sp)
    80001402:	ec4e                	sd	s3,24(sp)
    80001404:	e852                	sd	s4,16(sp)
    80001406:	e456                	sd	s5,8(sp)
    80001408:	e05a                	sd	s6,0(sp)
    8000140a:	0080                	addi	s0,sp,64
    8000140c:	03154303          	lbu	t1,49(a0)
    80001410:	03054783          	lbu	a5,48(a0)
    80001414:	03254883          	lbu	a7,50(a0)
    80001418:	03354803          	lbu	a6,51(a0)
    8000141c:	03454903          	lbu	s2,52(a0)
    80001420:	0322                	slli	t1,t1,0x8
    80001422:	00f36333          	or	t1,t1,a5
    80001426:	03554703          	lbu	a4,53(a0)
    8000142a:	08c2                	slli	a7,a7,0x10
    8000142c:	0068e8b3          	or	a7,a7,t1
    80001430:	03654783          	lbu	a5,54(a0)
    80001434:	0862                	slli	a6,a6,0x18
    80001436:	03754303          	lbu	t1,55(a0)
    8000143a:	01186833          	or	a6,a6,a7
    8000143e:	1902                	slli	s2,s2,0x20
    80001440:	1722                	slli	a4,a4,0x28
    80001442:	01096933          	or	s2,s2,a6
    80001446:	01276933          	or	s2,a4,s2
    8000144a:	17c2                	slli	a5,a5,0x30
    8000144c:	0127e7b3          	or	a5,a5,s2
    80001450:	03f00713          	li	a4,63
    80001454:	03831913          	slli	s2,t1,0x38
    80001458:	00f96933          	or	s2,s2,a5
    8000145c:	0ec76863          	bltu	a4,a2,8000154c <sbi_ipi_send.isra.0+0x154>
    80001460:	02061793          	slli	a5,a2,0x20
    80001464:	01d7d713          	srli	a4,a5,0x1d
    80001468:	00012797          	auipc	a5,0x12
    8000146c:	c9878793          	addi	a5,a5,-872 # 80013100 <fdt_nop_node+0x3f9e>
    80001470:	97ba                	add	a5,a5,a4
    80001472:	0007ba83          	ld	s5,0(a5)
    80001476:	89b2                	mv	s3,a2
    80001478:	0c0a8a63          	beqz	s5,8000154c <sbi_ipi_send.isra.0+0x154>
    8000147c:	02059793          	slli	a5,a1,0x20
    80001480:	01d7d713          	srli	a4,a5,0x1d
    80001484:	00012797          	auipc	a5,0x12
    80001488:	e7c78793          	addi	a5,a5,-388 # 80013300 <fdt_nop_node+0x419e>
    8000148c:	97ba                	add	a5,a5,a4
    8000148e:	8a2e                	mv	s4,a1
    80001490:	638c                	ld	a1,0(a5)
    80001492:	cdcd                	beqz	a1,8000154c <sbi_ipi_send.isra.0+0x154>
    80001494:	020ab703          	ld	a4,32(s5)
    80001498:	00012797          	auipc	a5,0x12
    8000149c:	b887b783          	ld	a5,-1144(a5) # 80013020 <fdt_nop_node+0x3ebe>
    800014a0:	84aa                	mv	s1,a0
    800014a2:	00f58b33          	add	s6,a1,a5
    800014a6:	c709                	beqz	a4,800014b0 <sbi_ipi_send.isra.0+0xb8>
    800014a8:	8652                	mv	a2,s4
    800014aa:	9702                	jalr	a4
    800014ac:	0a054063          	bltz	a0,8000154c <sbi_ipi_send.isra.0+0x154>
    800014b0:	85da                	mv	a1,s6
    800014b2:	854e                	mv	a0,s3
    800014b4:	60c030ef          	jal	ra,80004ac0 <atomic_raw_set_bit>
    800014b8:	0110000f          	fence	w,w
    800014bc:	08090363          	beqz	s2,80001542 <sbi_ipi_send.isra.0+0x14a>
    800014c0:	05994783          	lbu	a5,89(s2)
    800014c4:	05894703          	lbu	a4,88(s2)
    800014c8:	05a94503          	lbu	a0,90(s2)
    800014cc:	05b94583          	lbu	a1,91(s2)
    800014d0:	05c94603          	lbu	a2,92(s2)
    800014d4:	07a2                	slli	a5,a5,0x8
    800014d6:	8fd9                	or	a5,a5,a4
    800014d8:	05d94683          	lbu	a3,93(s2)
    800014dc:	0542                	slli	a0,a0,0x10
    800014de:	8d5d                	or	a0,a0,a5
    800014e0:	05e94703          	lbu	a4,94(s2)
    800014e4:	05e2                	slli	a1,a1,0x18
    800014e6:	8dc9                	or	a1,a1,a0
    800014e8:	05f94783          	lbu	a5,95(s2)
    800014ec:	1602                	slli	a2,a2,0x20
    800014ee:	8e4d                	or	a2,a2,a1
    800014f0:	16a2                	slli	a3,a3,0x28
    800014f2:	8ed1                	or	a3,a3,a2
    800014f4:	1742                	slli	a4,a4,0x30
    800014f6:	8f55                	or	a4,a4,a3
    800014f8:	17e2                	slli	a5,a5,0x38
    800014fa:	8fd9                	or	a5,a5,a4
    800014fc:	0697c803          	lbu	a6,105(a5)
    80001500:	0687c703          	lbu	a4,104(a5)
    80001504:	06a7c503          	lbu	a0,106(a5)
    80001508:	06b7c583          	lbu	a1,107(a5)
    8000150c:	06c7c603          	lbu	a2,108(a5)
    80001510:	0822                	slli	a6,a6,0x8
    80001512:	06d7c683          	lbu	a3,109(a5)
    80001516:	00e86833          	or	a6,a6,a4
    8000151a:	0542                	slli	a0,a0,0x10
    8000151c:	06e7c703          	lbu	a4,110(a5)
    80001520:	01056533          	or	a0,a0,a6
    80001524:	05e2                	slli	a1,a1,0x18
    80001526:	06f7c783          	lbu	a5,111(a5)
    8000152a:	8dc9                	or	a1,a1,a0
    8000152c:	1602                	slli	a2,a2,0x20
    8000152e:	8e4d                	or	a2,a2,a1
    80001530:	16a2                	slli	a3,a3,0x28
    80001532:	8ed1                	or	a3,a3,a2
    80001534:	1742                	slli	a4,a4,0x30
    80001536:	8f55                	or	a4,a4,a3
    80001538:	17e2                	slli	a5,a5,0x38
    8000153a:	8fd9                	or	a5,a5,a4
    8000153c:	c399                	beqz	a5,80001542 <sbi_ipi_send.isra.0+0x14a>
    8000153e:	8552                	mv	a0,s4
    80001540:	9782                	jalr	a5
    80001542:	028ab783          	ld	a5,40(s5)
    80001546:	c399                	beqz	a5,8000154c <sbi_ipi_send.isra.0+0x154>
    80001548:	8526                	mv	a0,s1
    8000154a:	9782                	jalr	a5
    8000154c:	70e2                	ld	ra,56(sp)
    8000154e:	7442                	ld	s0,48(sp)
    80001550:	74a2                	ld	s1,40(sp)
    80001552:	7902                	ld	s2,32(sp)
    80001554:	69e2                	ld	s3,24(sp)
    80001556:	6a42                	ld	s4,16(sp)
    80001558:	6aa2                	ld	s5,8(sp)
    8000155a:	6b02                	ld	s6,0(sp)
    8000155c:	6121                	addi	sp,sp,64
    8000155e:	8082                	ret

0000000080001560 <sbi_ipi_send_many>:
    80001560:	715d                	addi	sp,sp,-80
    80001562:	e0a2                	sd	s0,64(sp)
    80001564:	f44e                	sd	s3,40(sp)
    80001566:	f052                	sd	s4,32(sp)
    80001568:	e486                	sd	ra,72(sp)
    8000156a:	fc26                	sd	s1,56(sp)
    8000156c:	f84a                	sd	s2,48(sp)
    8000156e:	ec56                	sd	s5,24(sp)
    80001570:	0880                	addi	s0,sp,80
    80001572:	89b2                	mv	s3,a2
    80001574:	8a36                	mv	s4,a3
    80001576:	34002af3          	csrr	s5,mscratch
    8000157a:	57fd                	li	a5,-1
    8000157c:	4901                	li	s2,0
    8000157e:	06f59563          	bne	a1,a5,800015e8 <sbi_ipi_send_many+0x88>
    80001582:	fb840593          	addi	a1,s0,-72
    80001586:	854a                	mv	a0,s2
    80001588:	646060ef          	jal	ra,80007bce <sbi_hsm_hart_started_mask>
    8000158c:	e521                	bnez	a0,800015d4 <sbi_ipi_send_many+0x74>
    8000158e:	fb843783          	ld	a5,-72(s0)
    80001592:	84ca                	mv	s1,s2
    80001594:	e799                	bnez	a5,800015a2 <sbi_ipi_send_many+0x42>
    80001596:	a03d                	j	800015c4 <sbi_ipi_send_many+0x64>
    80001598:	8385                	srli	a5,a5,0x1
    8000159a:	faf43c23          	sd	a5,-72(s0)
    8000159e:	0485                	addi	s1,s1,1
    800015a0:	c395                	beqz	a5,800015c4 <sbi_ipi_send_many+0x64>
    800015a2:	0017f713          	andi	a4,a5,1
    800015a6:	db6d                	beqz	a4,80001598 <sbi_ipi_send_many+0x38>
    800015a8:	0004859b          	sext.w	a1,s1
    800015ac:	86d2                	mv	a3,s4
    800015ae:	864e                	mv	a2,s3
    800015b0:	8556                	mv	a0,s5
    800015b2:	e47ff0ef          	jal	ra,800013f8 <sbi_ipi_send.isra.0>
    800015b6:	fb843783          	ld	a5,-72(s0)
    800015ba:	0485                	addi	s1,s1,1
    800015bc:	8385                	srli	a5,a5,0x1
    800015be:	faf43c23          	sd	a5,-72(s0)
    800015c2:	f3e5                	bnez	a5,800015a2 <sbi_ipi_send_many+0x42>
    800015c4:	04090913          	addi	s2,s2,64
    800015c8:	fb840593          	addi	a1,s0,-72
    800015cc:	854a                	mv	a0,s2
    800015ce:	600060ef          	jal	ra,80007bce <sbi_hsm_hart_started_mask>
    800015d2:	dd55                	beqz	a0,8000158e <sbi_ipi_send_many+0x2e>
    800015d4:	4501                	li	a0,0
    800015d6:	60a6                	ld	ra,72(sp)
    800015d8:	6406                	ld	s0,64(sp)
    800015da:	74e2                	ld	s1,56(sp)
    800015dc:	7942                	ld	s2,48(sp)
    800015de:	79a2                	ld	s3,40(sp)
    800015e0:	7a02                	ld	s4,32(sp)
    800015e2:	6ae2                	ld	s5,24(sp)
    800015e4:	6161                	addi	sp,sp,80
    800015e6:	8082                	ret
    800015e8:	892e                	mv	s2,a1
    800015ea:	84aa                	mv	s1,a0
    800015ec:	fb840593          	addi	a1,s0,-72
    800015f0:	854a                	mv	a0,s2
    800015f2:	5dc060ef          	jal	ra,80007bce <sbi_hsm_hart_started_mask>
    800015f6:	f165                	bnez	a0,800015d6 <sbi_ipi_send_many+0x76>
    800015f8:	fb843783          	ld	a5,-72(s0)
    800015fc:	00f4f733          	and	a4,s1,a5
    80001600:	fae43c23          	sd	a4,-72(s0)
    80001604:	87ba                	mv	a5,a4
    80001606:	eb01                	bnez	a4,80001616 <sbi_ipi_send_many+0xb6>
    80001608:	b7f1                	j	800015d4 <sbi_ipi_send_many+0x74>
    8000160a:	8385                	srli	a5,a5,0x1
    8000160c:	faf43c23          	sd	a5,-72(s0)
    80001610:	0905                	addi	s2,s2,1
    80001612:	873e                	mv	a4,a5
    80001614:	d3e1                	beqz	a5,800015d4 <sbi_ipi_send_many+0x74>
    80001616:	8b05                	andi	a4,a4,1
    80001618:	db6d                	beqz	a4,8000160a <sbi_ipi_send_many+0xaa>
    8000161a:	0009059b          	sext.w	a1,s2
    8000161e:	86d2                	mv	a3,s4
    80001620:	864e                	mv	a2,s3
    80001622:	8556                	mv	a0,s5
    80001624:	dd5ff0ef          	jal	ra,800013f8 <sbi_ipi_send.isra.0>
    80001628:	fb843783          	ld	a5,-72(s0)
    8000162c:	bff9                	j	8000160a <sbi_ipi_send_many+0xaa>

000000008000162e <sbi_ipi_event_create>:
    8000162e:	1141                	addi	sp,sp,-16
    80001630:	e422                	sd	s0,8(sp)
    80001632:	0800                	addi	s0,sp,16
    80001634:	cd1d                	beqz	a0,80001672 <sbi_ipi_event_create+0x44>
    80001636:	791c                	ld	a5,48(a0)
    80001638:	862a                	mv	a2,a0
    8000163a:	cf85                	beqz	a5,80001672 <sbi_ipi_event_create+0x44>
    8000163c:	00012597          	auipc	a1,0x12
    80001640:	ac458593          	addi	a1,a1,-1340 # 80013100 <fdt_nop_node+0x3f9e>
    80001644:	87ae                	mv	a5,a1
    80001646:	4501                	li	a0,0
    80001648:	04000693          	li	a3,64
    8000164c:	a021                	j	80001654 <sbi_ipi_event_create+0x26>
    8000164e:	2505                	addiw	a0,a0,1
    80001650:	00d50c63          	beq	a0,a3,80001668 <sbi_ipi_event_create+0x3a>
    80001654:	6398                	ld	a4,0(a5)
    80001656:	07a1                	addi	a5,a5,8
    80001658:	fb7d                	bnez	a4,8000164e <sbi_ipi_event_create+0x20>
    8000165a:	00351793          	slli	a5,a0,0x3
    8000165e:	95be                	add	a1,a1,a5
    80001660:	e190                	sd	a2,0(a1)
    80001662:	6422                	ld	s0,8(sp)
    80001664:	0141                	addi	sp,sp,16
    80001666:	8082                	ret
    80001668:	6422                	ld	s0,8(sp)
    8000166a:	c1300513          	li	a0,-1005
    8000166e:	0141                	addi	sp,sp,16
    80001670:	8082                	ret
    80001672:	5575                	li	a0,-3
    80001674:	b7fd                	j	80001662 <sbi_ipi_event_create+0x34>

0000000080001676 <sbi_ipi_event_destroy>:
    80001676:	1141                	addi	sp,sp,-16
    80001678:	e422                	sd	s0,8(sp)
    8000167a:	0800                	addi	s0,sp,16
    8000167c:	03f00793          	li	a5,63
    80001680:	00a7ed63          	bltu	a5,a0,8000169a <sbi_ipi_event_destroy+0x24>
    80001684:	02051793          	slli	a5,a0,0x20
    80001688:	01d7d513          	srli	a0,a5,0x1d
    8000168c:	00012797          	auipc	a5,0x12
    80001690:	a7478793          	addi	a5,a5,-1420 # 80013100 <fdt_nop_node+0x3f9e>
    80001694:	953e                	add	a0,a0,a5
    80001696:	00053023          	sd	zero,0(a0)
    8000169a:	6422                	ld	s0,8(sp)
    8000169c:	0141                	addi	sp,sp,16
    8000169e:	8082                	ret

00000000800016a0 <sbi_ipi_send_smode>:
    800016a0:	1141                	addi	sp,sp,-16
    800016a2:	e022                	sd	s0,0(sp)
    800016a4:	e406                	sd	ra,8(sp)
    800016a6:	0800                	addi	s0,sp,16
    800016a8:	4681                	li	a3,0
    800016aa:	00011617          	auipc	a2,0x11
    800016ae:	95a62603          	lw	a2,-1702(a2) # 80012004 <fdt_nop_node+0x2ea2>
    800016b2:	eafff0ef          	jal	ra,80001560 <sbi_ipi_send_many>
    800016b6:	60a2                	ld	ra,8(sp)
    800016b8:	6402                	ld	s0,0(sp)
    800016ba:	0141                	addi	sp,sp,16
    800016bc:	8082                	ret

00000000800016be <sbi_ipi_clear_smode>:
    800016be:	1141                	addi	sp,sp,-16
    800016c0:	e422                	sd	s0,8(sp)
    800016c2:	0800                	addi	s0,sp,16
    800016c4:	34417073          	csrci	mip,2
    800016c8:	6422                	ld	s0,8(sp)
    800016ca:	0141                	addi	sp,sp,16
    800016cc:	8082                	ret

00000000800016ce <sbi_ipi_send_halt>:
    800016ce:	1141                	addi	sp,sp,-16
    800016d0:	e022                	sd	s0,0(sp)
    800016d2:	e406                	sd	ra,8(sp)
    800016d4:	0800                	addi	s0,sp,16
    800016d6:	4681                	li	a3,0
    800016d8:	00011617          	auipc	a2,0x11
    800016dc:	92862603          	lw	a2,-1752(a2) # 80012000 <fdt_nop_node+0x2e9e>
    800016e0:	e81ff0ef          	jal	ra,80001560 <sbi_ipi_send_many>
    800016e4:	60a2                	ld	ra,8(sp)
    800016e6:	6402                	ld	s0,0(sp)
    800016e8:	0141                	addi	sp,sp,16
    800016ea:	8082                	ret

00000000800016ec <sbi_ipi_process>:
    800016ec:	7179                	addi	sp,sp,-48
    800016ee:	f022                	sd	s0,32(sp)
    800016f0:	f406                	sd	ra,40(sp)
    800016f2:	ec26                	sd	s1,24(sp)
    800016f4:	e84a                	sd	s2,16(sp)
    800016f6:	e44e                	sd	s3,8(sp)
    800016f8:	e052                	sd	s4,0(sp)
    800016fa:	1800                	addi	s0,sp,48
    800016fc:	340029f3          	csrr	s3,mscratch
    80001700:	0319c783          	lbu	a5,49(s3)
    80001704:	0309c703          	lbu	a4,48(s3)
    80001708:	0329c503          	lbu	a0,50(s3)
    8000170c:	0339c583          	lbu	a1,51(s3)
    80001710:	0349c603          	lbu	a2,52(s3)
    80001714:	07a2                	slli	a5,a5,0x8
    80001716:	8fd9                	or	a5,a5,a4
    80001718:	0359c683          	lbu	a3,53(s3)
    8000171c:	0542                	slli	a0,a0,0x10
    8000171e:	8d5d                	or	a0,a0,a5
    80001720:	0369c703          	lbu	a4,54(s3)
    80001724:	05e2                	slli	a1,a1,0x18
    80001726:	0379c783          	lbu	a5,55(s3)
    8000172a:	8dc9                	or	a1,a1,a0
    8000172c:	1602                	slli	a2,a2,0x20
    8000172e:	8e4d                	or	a2,a2,a1
    80001730:	16a2                	slli	a3,a3,0x28
    80001732:	8ed1                	or	a3,a3,a2
    80001734:	1742                	slli	a4,a4,0x30
    80001736:	8f55                	or	a4,a4,a3
    80001738:	00012497          	auipc	s1,0x12
    8000173c:	8e84b483          	ld	s1,-1816(s1) # 80013020 <fdt_nop_node+0x3ebe>
    80001740:	17e2                	slli	a5,a5,0x38
    80001742:	8fd9                	or	a5,a5,a4
    80001744:	94ce                	add	s1,s1,s3
    80001746:	f1402573          	csrr	a0,mhartid
    8000174a:	c7d1                	beqz	a5,800017d6 <sbi_ipi_process+0xea>
    8000174c:	0597c883          	lbu	a7,89(a5)
    80001750:	0587c703          	lbu	a4,88(a5)
    80001754:	05a7c803          	lbu	a6,90(a5)
    80001758:	05b7c583          	lbu	a1,91(a5)
    8000175c:	05c7c603          	lbu	a2,92(a5)
    80001760:	08a2                	slli	a7,a7,0x8
    80001762:	00e8e8b3          	or	a7,a7,a4
    80001766:	05d7c683          	lbu	a3,93(a5)
    8000176a:	0842                	slli	a6,a6,0x10
    8000176c:	01186833          	or	a6,a6,a7
    80001770:	05e7c703          	lbu	a4,94(a5)
    80001774:	05e2                	slli	a1,a1,0x18
    80001776:	0105e5b3          	or	a1,a1,a6
    8000177a:	05f7c783          	lbu	a5,95(a5)
    8000177e:	1602                	slli	a2,a2,0x20
    80001780:	8e4d                	or	a2,a2,a1
    80001782:	16a2                	slli	a3,a3,0x28
    80001784:	8ed1                	or	a3,a3,a2
    80001786:	1742                	slli	a4,a4,0x30
    80001788:	8f55                	or	a4,a4,a3
    8000178a:	17e2                	slli	a5,a5,0x38
    8000178c:	8fd9                	or	a5,a5,a4
    8000178e:	0717c883          	lbu	a7,113(a5)
    80001792:	0707c703          	lbu	a4,112(a5)
    80001796:	0727c803          	lbu	a6,114(a5)
    8000179a:	0737c583          	lbu	a1,115(a5)
    8000179e:	0747c603          	lbu	a2,116(a5)
    800017a2:	08a2                	slli	a7,a7,0x8
    800017a4:	0757c683          	lbu	a3,117(a5)
    800017a8:	00e8e8b3          	or	a7,a7,a4
    800017ac:	0842                	slli	a6,a6,0x10
    800017ae:	0767c703          	lbu	a4,118(a5)
    800017b2:	01186833          	or	a6,a6,a7
    800017b6:	05e2                	slli	a1,a1,0x18
    800017b8:	0777c783          	lbu	a5,119(a5)
    800017bc:	0105e5b3          	or	a1,a1,a6
    800017c0:	1602                	slli	a2,a2,0x20
    800017c2:	8e4d                	or	a2,a2,a1
    800017c4:	16a2                	slli	a3,a3,0x28
    800017c6:	8ed1                	or	a3,a3,a2
    800017c8:	1742                	slli	a4,a4,0x30
    800017ca:	8f55                	or	a4,a4,a3
    800017cc:	17e2                	slli	a5,a5,0x38
    800017ce:	8fd9                	or	a5,a5,a4
    800017d0:	c399                	beqz	a5,800017d6 <sbi_ipi_process+0xea>
    800017d2:	2501                	sext.w	a0,a0
    800017d4:	9782                	jalr	a5
    800017d6:	8526                	mv	a0,s1
    800017d8:	4581                	li	a1,0
    800017da:	2be030ef          	jal	ra,80004a98 <atomic_raw_xchg_ulong>
    800017de:	84aa                	mv	s1,a0
    800017e0:	c51d                	beqz	a0,8000180e <sbi_ipi_process+0x122>
    800017e2:	4901                	li	s2,0
    800017e4:	00012a17          	auipc	s4,0x12
    800017e8:	91ca0a13          	addi	s4,s4,-1764 # 80013100 <fdt_nop_node+0x3f9e>
    800017ec:	02091713          	slli	a4,s2,0x20
    800017f0:	01d75793          	srli	a5,a4,0x1d
    800017f4:	0014f713          	andi	a4,s1,1
    800017f8:	97d2                	add	a5,a5,s4
    800017fa:	8085                	srli	s1,s1,0x1
    800017fc:	c719                	beqz	a4,8000180a <sbi_ipi_process+0x11e>
    800017fe:	639c                	ld	a5,0(a5)
    80001800:	854e                	mv	a0,s3
    80001802:	c781                	beqz	a5,8000180a <sbi_ipi_process+0x11e>
    80001804:	7b9c                	ld	a5,48(a5)
    80001806:	c391                	beqz	a5,8000180a <sbi_ipi_process+0x11e>
    80001808:	9782                	jalr	a5
    8000180a:	2905                	addiw	s2,s2,1
    8000180c:	f0e5                	bnez	s1,800017ec <sbi_ipi_process+0x100>
    8000180e:	70a2                	ld	ra,40(sp)
    80001810:	7402                	ld	s0,32(sp)
    80001812:	64e2                	ld	s1,24(sp)
    80001814:	6942                	ld	s2,16(sp)
    80001816:	69a2                	ld	s3,8(sp)
    80001818:	6a02                	ld	s4,0(sp)
    8000181a:	6145                	addi	sp,sp,48
    8000181c:	8082                	ret

000000008000181e <sbi_ipi_init>:
    8000181e:	1101                	addi	sp,sp,-32
    80001820:	e822                	sd	s0,16(sp)
    80001822:	e426                	sd	s1,8(sp)
    80001824:	e04a                	sd	s2,0(sp)
    80001826:	ec06                	sd	ra,24(sp)
    80001828:	1000                	addi	s0,sp,32
    8000182a:	892e                	mv	s2,a1
    8000182c:	84aa                	mv	s1,a0
    8000182e:	10059563          	bnez	a1,80001938 <sbi_ipi_init+0x11a>
    80001832:	00011517          	auipc	a0,0x11
    80001836:	7ee53503          	ld	a0,2030(a0) # 80013020 <fdt_nop_node+0x3ebe>
    8000183a:	18050e63          	beqz	a0,800019d6 <sbi_ipi_init+0x1b8>
    8000183e:	00010717          	auipc	a4,0x10
    80001842:	7c672703          	lw	a4,1990(a4) # 80012004 <fdt_nop_node+0x2ea2>
    80001846:	03f00793          	li	a5,63
    8000184a:	16e7ee63          	bltu	a5,a4,800019c6 <sbi_ipi_init+0x1a8>
    8000184e:	00010717          	auipc	a4,0x10
    80001852:	7b272703          	lw	a4,1970(a4) # 80012000 <fdt_nop_node+0x2e9e>
    80001856:	16e7e863          	bltu	a5,a4,800019c6 <sbi_ipi_init+0x1a8>
    8000185a:	9526                	add	a0,a0,s1
    8000185c:	00053023          	sd	zero,0(a0)
    80001860:	0314c783          	lbu	a5,49(s1)
    80001864:	0304c703          	lbu	a4,48(s1)
    80001868:	0324c503          	lbu	a0,50(s1)
    8000186c:	0334c583          	lbu	a1,51(s1)
    80001870:	0344c603          	lbu	a2,52(s1)
    80001874:	07a2                	slli	a5,a5,0x8
    80001876:	8fd9                	or	a5,a5,a4
    80001878:	0354c683          	lbu	a3,53(s1)
    8000187c:	0542                	slli	a0,a0,0x10
    8000187e:	8d5d                	or	a0,a0,a5
    80001880:	0364c703          	lbu	a4,54(s1)
    80001884:	05e2                	slli	a1,a1,0x18
    80001886:	0374c783          	lbu	a5,55(s1)
    8000188a:	8dc9                	or	a1,a1,a0
    8000188c:	1602                	slli	a2,a2,0x20
    8000188e:	8e4d                	or	a2,a2,a1
    80001890:	16a2                	slli	a3,a3,0x28
    80001892:	8ed1                	or	a3,a3,a2
    80001894:	1742                	slli	a4,a4,0x30
    80001896:	8f55                	or	a4,a4,a3
    80001898:	17e2                	slli	a5,a5,0x38
    8000189a:	8fd9                	or	a5,a5,a4
    8000189c:	c7c9                	beqz	a5,80001926 <sbi_ipi_init+0x108>
    8000189e:	0597c803          	lbu	a6,89(a5)
    800018a2:	0587c703          	lbu	a4,88(a5)
    800018a6:	05a7c503          	lbu	a0,90(a5)
    800018aa:	05b7c583          	lbu	a1,91(a5)
    800018ae:	05c7c603          	lbu	a2,92(a5)
    800018b2:	0822                	slli	a6,a6,0x8
    800018b4:	00e86833          	or	a6,a6,a4
    800018b8:	05d7c683          	lbu	a3,93(a5)
    800018bc:	0542                	slli	a0,a0,0x10
    800018be:	01056533          	or	a0,a0,a6
    800018c2:	05e7c703          	lbu	a4,94(a5)
    800018c6:	05e2                	slli	a1,a1,0x18
    800018c8:	8dc9                	or	a1,a1,a0
    800018ca:	05f7c783          	lbu	a5,95(a5)
    800018ce:	1602                	slli	a2,a2,0x20
    800018d0:	8e4d                	or	a2,a2,a1
    800018d2:	16a2                	slli	a3,a3,0x28
    800018d4:	8ed1                	or	a3,a3,a2
    800018d6:	1742                	slli	a4,a4,0x30
    800018d8:	8f55                	or	a4,a4,a3
    800018da:	17e2                	slli	a5,a5,0x38
    800018dc:	8fd9                	or	a5,a5,a4
    800018de:	0797c803          	lbu	a6,121(a5)
    800018e2:	0787c703          	lbu	a4,120(a5)
    800018e6:	07a7c503          	lbu	a0,122(a5)
    800018ea:	07b7c583          	lbu	a1,123(a5)
    800018ee:	07c7c603          	lbu	a2,124(a5)
    800018f2:	0822                	slli	a6,a6,0x8
    800018f4:	07d7c683          	lbu	a3,125(a5)
    800018f8:	00e86833          	or	a6,a6,a4
    800018fc:	0542                	slli	a0,a0,0x10
    800018fe:	07e7c703          	lbu	a4,126(a5)
    80001902:	01056533          	or	a0,a0,a6
    80001906:	05e2                	slli	a1,a1,0x18
    80001908:	07f7c783          	lbu	a5,127(a5)
    8000190c:	8dc9                	or	a1,a1,a0
    8000190e:	1602                	slli	a2,a2,0x20
    80001910:	8e4d                	or	a2,a2,a1
    80001912:	16a2                	slli	a3,a3,0x28
    80001914:	8ed1                	or	a3,a3,a2
    80001916:	1742                	slli	a4,a4,0x30
    80001918:	8f55                	or	a4,a4,a3
    8000191a:	17e2                	slli	a5,a5,0x38
    8000191c:	8fd9                	or	a5,a5,a4
    8000191e:	c781                	beqz	a5,80001926 <sbi_ipi_init+0x108>
    80001920:	854a                	mv	a0,s2
    80001922:	9782                	jalr	a5
    80001924:	e501                	bnez	a0,8000192c <sbi_ipi_init+0x10e>
    80001926:	30446073          	csrsi	mie,8
    8000192a:	4501                	li	a0,0
    8000192c:	60e2                	ld	ra,24(sp)
    8000192e:	6442                	ld	s0,16(sp)
    80001930:	64a2                	ld	s1,8(sp)
    80001932:	6902                	ld	s2,0(sp)
    80001934:	6105                	addi	sp,sp,32
    80001936:	8082                	ret
    80001938:	0000f597          	auipc	a1,0xf
    8000193c:	98058593          	addi	a1,a1,-1664 # 800102b8 <fdt_nop_node+0x1156>
    80001940:	4521                	li	a0,8
    80001942:	43c000ef          	jal	ra,80001d7e <sbi_scratch_alloc_offset>
    80001946:	00011797          	auipc	a5,0x11
    8000194a:	6ca7bd23          	sd	a0,1754(a5) # 80013020 <fdt_nop_node+0x3ebe>
    8000194e:	c541                	beqz	a0,800019d6 <sbi_ipi_init+0x1b8>
    80001950:	00010817          	auipc	a6,0x10
    80001954:	6f080813          	addi	a6,a6,1776 # 80012040 <fdt_nop_node+0x2ede>
    80001958:	03083783          	ld	a5,48(a6)
    8000195c:	c3c1                	beqz	a5,800019dc <sbi_ipi_init+0x1be>
    8000195e:	00011697          	auipc	a3,0x11
    80001962:	7a268693          	addi	a3,a3,1954 # 80013100 <fdt_nop_node+0x3f9e>
    80001966:	88b6                	mv	a7,a3
    80001968:	87b6                	mv	a5,a3
    8000196a:	4701                	li	a4,0
    8000196c:	04000593          	li	a1,64
    80001970:	a021                	j	80001978 <sbi_ipi_init+0x15a>
    80001972:	2705                	addiw	a4,a4,1
    80001974:	04b70963          	beq	a4,a1,800019c6 <sbi_ipi_init+0x1a8>
    80001978:	6390                	ld	a2,0(a5)
    8000197a:	07a1                	addi	a5,a5,8
    8000197c:	fa7d                	bnez	a2,80001972 <sbi_ipi_init+0x154>
    8000197e:	00371793          	slli	a5,a4,0x3
    80001982:	06883603          	ld	a2,104(a6)
    80001986:	97c6                	add	a5,a5,a7
    80001988:	0107b023          	sd	a6,0(a5)
    8000198c:	00010797          	auipc	a5,0x10
    80001990:	66e7ac23          	sw	a4,1656(a5) # 80012004 <fdt_nop_node+0x2ea2>
    80001994:	c621                	beqz	a2,800019dc <sbi_ipi_init+0x1be>
    80001996:	4781                	li	a5,0
    80001998:	04000613          	li	a2,64
    8000199c:	a021                	j	800019a4 <sbi_ipi_init+0x186>
    8000199e:	2785                	addiw	a5,a5,1
    800019a0:	02c78363          	beq	a5,a2,800019c6 <sbi_ipi_init+0x1a8>
    800019a4:	6298                	ld	a4,0(a3)
    800019a6:	06a1                	addi	a3,a3,8
    800019a8:	fb7d                	bnez	a4,8000199e <sbi_ipi_init+0x180>
    800019aa:	00379713          	slli	a4,a5,0x3
    800019ae:	98ba                	add	a7,a7,a4
    800019b0:	00010717          	auipc	a4,0x10
    800019b4:	6c870713          	addi	a4,a4,1736 # 80012078 <fdt_nop_node+0x2f16>
    800019b8:	00e8b023          	sd	a4,0(a7)
    800019bc:	00010717          	auipc	a4,0x10
    800019c0:	64f72223          	sw	a5,1604(a4) # 80012000 <fdt_nop_node+0x2e9e>
    800019c4:	bd59                	j	8000185a <sbi_ipi_init+0x3c>
    800019c6:	60e2                	ld	ra,24(sp)
    800019c8:	6442                	ld	s0,16(sp)
    800019ca:	64a2                	ld	s1,8(sp)
    800019cc:	6902                	ld	s2,0(sp)
    800019ce:	c1300513          	li	a0,-1005
    800019d2:	6105                	addi	sp,sp,32
    800019d4:	8082                	ret
    800019d6:	c1200513          	li	a0,-1006
    800019da:	bf89                	j	8000192c <sbi_ipi_init+0x10e>
    800019dc:	5575                	li	a0,-3
    800019de:	b7b9                	j	8000192c <sbi_ipi_init+0x10e>

00000000800019e0 <sbi_ipi_exit>:
    800019e0:	1101                	addi	sp,sp,-32
    800019e2:	e822                	sd	s0,16(sp)
    800019e4:	e426                	sd	s1,8(sp)
    800019e6:	ec06                	sd	ra,24(sp)
    800019e8:	1000                	addi	s0,sp,32
    800019ea:	84aa                	mv	s1,a0
    800019ec:	30447073          	csrci	mie,8
    800019f0:	cfdff0ef          	jal	ra,800016ec <sbi_ipi_process>
    800019f4:	0314c783          	lbu	a5,49(s1)
    800019f8:	0304c703          	lbu	a4,48(s1)
    800019fc:	0324c503          	lbu	a0,50(s1)
    80001a00:	0334c583          	lbu	a1,51(s1)
    80001a04:	0344c603          	lbu	a2,52(s1)
    80001a08:	07a2                	slli	a5,a5,0x8
    80001a0a:	8fd9                	or	a5,a5,a4
    80001a0c:	0354c683          	lbu	a3,53(s1)
    80001a10:	0542                	slli	a0,a0,0x10
    80001a12:	8d5d                	or	a0,a0,a5
    80001a14:	0364c703          	lbu	a4,54(s1)
    80001a18:	05e2                	slli	a1,a1,0x18
    80001a1a:	0374c783          	lbu	a5,55(s1)
    80001a1e:	8dc9                	or	a1,a1,a0
    80001a20:	1602                	slli	a2,a2,0x20
    80001a22:	8e4d                	or	a2,a2,a1
    80001a24:	16a2                	slli	a3,a3,0x28
    80001a26:	8ed1                	or	a3,a3,a2
    80001a28:	1742                	slli	a4,a4,0x30
    80001a2a:	8f55                	or	a4,a4,a3
    80001a2c:	17e2                	slli	a5,a5,0x38
    80001a2e:	8fd9                	or	a5,a5,a4
    80001a30:	c3d9                	beqz	a5,80001ab6 <sbi_ipi_exit+0xd6>
    80001a32:	0597c803          	lbu	a6,89(a5)
    80001a36:	0587c703          	lbu	a4,88(a5)
    80001a3a:	05a7c503          	lbu	a0,90(a5)
    80001a3e:	05b7c583          	lbu	a1,91(a5)
    80001a42:	05c7c603          	lbu	a2,92(a5)
    80001a46:	0822                	slli	a6,a6,0x8
    80001a48:	00e86833          	or	a6,a6,a4
    80001a4c:	05d7c683          	lbu	a3,93(a5)
    80001a50:	0542                	slli	a0,a0,0x10
    80001a52:	01056533          	or	a0,a0,a6
    80001a56:	05e7c703          	lbu	a4,94(a5)
    80001a5a:	05e2                	slli	a1,a1,0x18
    80001a5c:	8dc9                	or	a1,a1,a0
    80001a5e:	05f7c783          	lbu	a5,95(a5)
    80001a62:	1602                	slli	a2,a2,0x20
    80001a64:	8e4d                	or	a2,a2,a1
    80001a66:	16a2                	slli	a3,a3,0x28
    80001a68:	8ed1                	or	a3,a3,a2
    80001a6a:	1742                	slli	a4,a4,0x30
    80001a6c:	8f55                	or	a4,a4,a3
    80001a6e:	17e2                	slli	a5,a5,0x38
    80001a70:	8fd9                	or	a5,a5,a4
    80001a72:	0817c803          	lbu	a6,129(a5)
    80001a76:	0807c703          	lbu	a4,128(a5)
    80001a7a:	0827c503          	lbu	a0,130(a5)
    80001a7e:	0837c583          	lbu	a1,131(a5)
    80001a82:	0847c603          	lbu	a2,132(a5)
    80001a86:	0822                	slli	a6,a6,0x8
    80001a88:	0857c683          	lbu	a3,133(a5)
    80001a8c:	00e86833          	or	a6,a6,a4
    80001a90:	0542                	slli	a0,a0,0x10
    80001a92:	0867c703          	lbu	a4,134(a5)
    80001a96:	01056533          	or	a0,a0,a6
    80001a9a:	05e2                	slli	a1,a1,0x18
    80001a9c:	0877c783          	lbu	a5,135(a5)
    80001aa0:	8dc9                	or	a1,a1,a0
    80001aa2:	1602                	slli	a2,a2,0x20
    80001aa4:	8e4d                	or	a2,a2,a1
    80001aa6:	16a2                	slli	a3,a3,0x28
    80001aa8:	8ed1                	or	a3,a3,a2
    80001aaa:	1742                	slli	a4,a4,0x30
    80001aac:	8f55                	or	a4,a4,a3
    80001aae:	17e2                	slli	a5,a5,0x38
    80001ab0:	8fd9                	or	a5,a5,a4
    80001ab2:	c391                	beqz	a5,80001ab6 <sbi_ipi_exit+0xd6>
    80001ab4:	9782                	jalr	a5
    80001ab6:	60e2                	ld	ra,24(sp)
    80001ab8:	6442                	ld	s0,16(sp)
    80001aba:	64a2                	ld	s1,8(sp)
    80001abc:	6105                	addi	sp,sp,32
    80001abe:	8082                	ret

0000000080001ac0 <sbi_platform_get_features_str>:
    80001ac0:	10050063          	beqz	a0,80001bc0 <sbi_platform_get_features_str+0x100>
    80001ac4:	711d                	addi	sp,sp,-96
    80001ac6:	e8a2                	sd	s0,80(sp)
    80001ac8:	e0ca                	sd	s2,64(sp)
    80001aca:	ec86                	sd	ra,88(sp)
    80001acc:	e4a6                	sd	s1,72(sp)
    80001ace:	fc4e                	sd	s3,56(sp)
    80001ad0:	f852                	sd	s4,48(sp)
    80001ad2:	f456                	sd	s5,40(sp)
    80001ad4:	f05a                	sd	s6,32(sp)
    80001ad6:	ec5e                	sd	s7,24(sp)
    80001ad8:	e862                	sd	s8,16(sp)
    80001ada:	e466                	sd	s9,8(sp)
    80001adc:	e06a                	sd	s10,0(sp)
    80001ade:	1080                	addi	s0,sp,96
    80001ae0:	892e                	mv	s2,a1
    80001ae2:	c199                	beqz	a1,80001ae8 <sbi_platform_get_features_str+0x28>
    80001ae4:	89b2                	mv	s3,a2
    80001ae6:	ee19                	bnez	a2,80001b04 <sbi_platform_get_features_str+0x44>
    80001ae8:	60e6                	ld	ra,88(sp)
    80001aea:	6446                	ld	s0,80(sp)
    80001aec:	64a6                	ld	s1,72(sp)
    80001aee:	6906                	ld	s2,64(sp)
    80001af0:	79e2                	ld	s3,56(sp)
    80001af2:	7a42                	ld	s4,48(sp)
    80001af4:	7aa2                	ld	s5,40(sp)
    80001af6:	7b02                	ld	s6,32(sp)
    80001af8:	6be2                	ld	s7,24(sp)
    80001afa:	6c42                	ld	s8,16(sp)
    80001afc:	6ca2                	ld	s9,8(sp)
    80001afe:	6d02                	ld	s10,0(sp)
    80001b00:	6125                	addi	sp,sp,96
    80001b02:	8082                	ret
    80001b04:	84aa                	mv	s1,a0
    80001b06:	4581                	li	a1,0
    80001b08:	854a                	mv	a0,s2
    80001b0a:	47c000ef          	jal	ra,80001f86 <sbi_memset>
    80001b0e:	0494c503          	lbu	a0,73(s1)
    80001b12:	0484c783          	lbu	a5,72(s1)
    80001b16:	04a4c583          	lbu	a1,74(s1)
    80001b1a:	04b4c603          	lbu	a2,75(s1)
    80001b1e:	04c4c683          	lbu	a3,76(s1)
    80001b22:	0522                	slli	a0,a0,0x8
    80001b24:	8d5d                	or	a0,a0,a5
    80001b26:	04d4c703          	lbu	a4,77(s1)
    80001b2a:	05c2                	slli	a1,a1,0x10
    80001b2c:	04e4c783          	lbu	a5,78(s1)
    80001b30:	8dc9                	or	a1,a1,a0
    80001b32:	0662                	slli	a2,a2,0x18
    80001b34:	04f4ca03          	lbu	s4,79(s1)
    80001b38:	8e4d                	or	a2,a2,a1
    80001b3a:	1682                	slli	a3,a3,0x20
    80001b3c:	8ed1                	or	a3,a3,a2
    80001b3e:	1722                	slli	a4,a4,0x28
    80001b40:	8f55                	or	a4,a4,a3
    80001b42:	17c2                	slli	a5,a5,0x30
    80001b44:	8fd9                	or	a5,a5,a4
    80001b46:	1a62                	slli	s4,s4,0x38
    80001b48:	00fa6a33          	or	s4,s4,a5
    80001b4c:	060a0163          	beqz	s4,80001bae <sbi_platform_get_features_str+0xee>
    80001b50:	4a91                	li	s5,4
    80001b52:	4b01                	li	s6,0
    80001b54:	4485                	li	s1,1
    80001b56:	0000ec17          	auipc	s8,0xe
    80001b5a:	7aac0c13          	addi	s8,s8,1962 # 80010300 <fdt_nop_node+0x119e>
    80001b5e:	00098d1b          	sext.w	s10,s3
    80001b62:	0000ec97          	auipc	s9,0xe
    80001b66:	766c8c93          	addi	s9,s9,1894 # 800102c8 <fdt_nop_node+0x1166>
    80001b6a:	fff48793          	addi	a5,s1,-1
    80001b6e:	078e                	slli	a5,a5,0x3
    80001b70:	0144f733          	and	a4,s1,s4
    80001b74:	97e2                	add	a5,a5,s8
    80001b76:	3afd                	addiw	s5,s5,-1
    80001b78:	c315                	beqz	a4,80001b9c <sbi_platform_get_features_str+0xdc>
    80001b7a:	0007bb83          	ld	s7,0(a5)
    80001b7e:	8666                	mv	a2,s9
    80001b80:	85ea                	mv	a1,s10
    80001b82:	86de                	mv	a3,s7
    80001b84:	01690533          	add	a0,s2,s6
    80001b88:	000b8a63          	beqz	s7,80001b9c <sbi_platform_get_features_str+0xdc>
    80001b8c:	791030ef          	jal	ra,80005b1c <sbi_snprintf>
    80001b90:	855e                	mv	a0,s7
    80001b92:	2e0000ef          	jal	ra,80001e72 <sbi_strlen>
    80001b96:	2b05                	addiw	s6,s6,1
    80001b98:	00ab0b3b          	addw	s6,s6,a0
    80001b9c:	0486                	slli	s1,s1,0x1
    80001b9e:	fc0a96e3          	bnez	s5,80001b6a <sbi_platform_get_features_str+0xaa>
    80001ba2:	000b0663          	beqz	s6,80001bae <sbi_platform_get_features_str+0xee>
    80001ba6:	995a                	add	s2,s2,s6
    80001ba8:	fe090fa3          	sb	zero,-1(s2)
    80001bac:	bf35                	j	80001ae8 <sbi_platform_get_features_str+0x28>
    80001bae:	864e                	mv	a2,s3
    80001bb0:	0000e597          	auipc	a1,0xe
    80001bb4:	72058593          	addi	a1,a1,1824 # 800102d0 <fdt_nop_node+0x116e>
    80001bb8:	854a                	mv	a0,s2
    80001bba:	33a000ef          	jal	ra,80001ef4 <sbi_strncpy>
    80001bbe:	b72d                	j	80001ae8 <sbi_platform_get_features_str+0x28>
    80001bc0:	8082                	ret

0000000080001bc2 <sbi_platform_hart_index>:
    80001bc2:	1141                	addi	sp,sp,-16
    80001bc4:	e422                	sd	s0,8(sp)
    80001bc6:	0800                	addi	s0,sp,16
    80001bc8:	c151                	beqz	a0,80001c4c <sbi_platform_hart_index+0x8a>
    80001bca:	06954783          	lbu	a5,105(a0)
    80001bce:	06854683          	lbu	a3,104(a0)
    80001bd2:	06a54883          	lbu	a7,106(a0)
    80001bd6:	06b54803          	lbu	a6,107(a0)
    80001bda:	872a                	mv	a4,a0
    80001bdc:	07a2                	slli	a5,a5,0x8
    80001bde:	06c54503          	lbu	a0,108(a0)
    80001be2:	8fd5                	or	a5,a5,a3
    80001be4:	06d74603          	lbu	a2,109(a4)
    80001be8:	08c2                	slli	a7,a7,0x10
    80001bea:	00f8e8b3          	or	a7,a7,a5
    80001bee:	06e74683          	lbu	a3,110(a4)
    80001bf2:	0862                	slli	a6,a6,0x18
    80001bf4:	06f74783          	lbu	a5,111(a4)
    80001bf8:	01186833          	or	a6,a6,a7
    80001bfc:	1502                	slli	a0,a0,0x20
    80001bfe:	01056533          	or	a0,a0,a6
    80001c02:	1622                	slli	a2,a2,0x28
    80001c04:	8e49                	or	a2,a2,a0
    80001c06:	16c2                	slli	a3,a3,0x30
    80001c08:	8ed1                	or	a3,a3,a2
    80001c0a:	17e2                	slli	a5,a5,0x38
    80001c0c:	8fd5                	or	a5,a5,a3
    80001c0e:	852e                	mv	a0,a1
    80001c10:	cb9d                	beqz	a5,80001c46 <sbi_platform_hart_index+0x84>
    80001c12:	05174603          	lbu	a2,81(a4)
    80001c16:	05074503          	lbu	a0,80(a4)
    80001c1a:	05274683          	lbu	a3,82(a4)
    80001c1e:	05374703          	lbu	a4,83(a4)
    80001c22:	0622                	slli	a2,a2,0x8
    80001c24:	8e49                	or	a2,a2,a0
    80001c26:	06c2                	slli	a3,a3,0x10
    80001c28:	8ed1                	or	a3,a3,a2
    80001c2a:	0762                	slli	a4,a4,0x18
    80001c2c:	8f55                	or	a4,a4,a3
    80001c2e:	0007069b          	sext.w	a3,a4
    80001c32:	cf09                	beqz	a4,80001c4c <sbi_platform_hart_index+0x8a>
    80001c34:	4501                	li	a0,0
    80001c36:	a021                	j	80001c3e <sbi_platform_hart_index+0x7c>
    80001c38:	2505                	addiw	a0,a0,1
    80001c3a:	00d50963          	beq	a0,a3,80001c4c <sbi_platform_hart_index+0x8a>
    80001c3e:	4398                	lw	a4,0(a5)
    80001c40:	0791                	addi	a5,a5,4
    80001c42:	feb71be3          	bne	a4,a1,80001c38 <sbi_platform_hart_index+0x76>
    80001c46:	6422                	ld	s0,8(sp)
    80001c48:	0141                	addi	sp,sp,16
    80001c4a:	8082                	ret
    80001c4c:	6422                	ld	s0,8(sp)
    80001c4e:	557d                	li	a0,-1
    80001c50:	0141                	addi	sp,sp,16
    80001c52:	8082                	ret

0000000080001c54 <sbi_scratch_init>:
    80001c54:	715d                	addi	sp,sp,-80
    80001c56:	e0a2                	sd	s0,64(sp)
    80001c58:	f44e                	sd	s3,40(sp)
    80001c5a:	f052                	sd	s4,32(sp)
    80001c5c:	ec56                	sd	s5,24(sp)
    80001c5e:	e85a                	sd	s6,16(sp)
    80001c60:	e062                	sd	s8,0(sp)
    80001c62:	e486                	sd	ra,72(sp)
    80001c64:	fc26                	sd	s1,56(sp)
    80001c66:	f84a                	sd	s2,48(sp)
    80001c68:	e45e                	sd	s7,8(sp)
    80001c6a:	0880                	addi	s0,sp,80
    80001c6c:	03154583          	lbu	a1,49(a0)
    80001c70:	03054783          	lbu	a5,48(a0)
    80001c74:	03254603          	lbu	a2,50(a0)
    80001c78:	03354683          	lbu	a3,51(a0)
    80001c7c:	03454703          	lbu	a4,52(a0)
    80001c80:	05a2                	slli	a1,a1,0x8
    80001c82:	8ddd                	or	a1,a1,a5
    80001c84:	03554903          	lbu	s2,53(a0)
    80001c88:	0642                	slli	a2,a2,0x10
    80001c8a:	8e4d                	or	a2,a2,a1
    80001c8c:	03654783          	lbu	a5,54(a0)
    80001c90:	06e2                	slli	a3,a3,0x18
    80001c92:	03754583          	lbu	a1,55(a0)
    80001c96:	8ed1                	or	a3,a3,a2
    80001c98:	1702                	slli	a4,a4,0x20
    80001c9a:	8f55                	or	a4,a4,a3
    80001c9c:	1922                	slli	s2,s2,0x28
    80001c9e:	00e96933          	or	s2,s2,a4
    80001ca2:	17c2                	slli	a5,a5,0x30
    80001ca4:	0127e7b3          	or	a5,a5,s2
    80001ca8:	03859913          	slli	s2,a1,0x38
    80001cac:	8b2a                	mv	s6,a0
    80001cae:	00f96933          	or	s2,s2,a5
    80001cb2:	00011c17          	auipc	s8,0x11
    80001cb6:	64ec0c13          	addi	s8,s8,1614 # 80013300 <fdt_nop_node+0x419e>
    80001cba:	4981                	li	s3,0
    80001cbc:	00010a97          	auipc	s5,0x10
    80001cc0:	354a8a93          	addi	s5,s5,852 # 80012010 <fdt_nop_node+0x2eae>
    80001cc4:	08000a13          	li	s4,128
    80001cc8:	00098b9b          	sext.w	s7,s3
    80001ccc:	854a                	mv	a0,s2
    80001cce:	85de                	mv	a1,s7
    80001cd0:	08090663          	beqz	s2,80001d5c <sbi_scratch_init+0x108>
    80001cd4:	05194703          	lbu	a4,81(s2)
    80001cd8:	05094683          	lbu	a3,80(s2)
    80001cdc:	05294783          	lbu	a5,82(s2)
    80001ce0:	05394483          	lbu	s1,83(s2)
    80001ce4:	0722                	slli	a4,a4,0x8
    80001ce6:	8f55                	or	a4,a4,a3
    80001ce8:	07c2                	slli	a5,a5,0x10
    80001cea:	8fd9                	or	a5,a5,a4
    80001cec:	04e2                	slli	s1,s1,0x18
    80001cee:	8cdd                	or	s1,s1,a5
    80001cf0:	ed3ff0ef          	jal	ra,80001bc2 <sbi_platform_hart_index>
    80001cf4:	87aa                	mv	a5,a0
    80001cf6:	2481                	sext.w	s1,s1
    80001cf8:	2781                	sext.w	a5,a5
    80001cfa:	85de                	mv	a1,s7
    80001cfc:	854a                	mv	a0,s2
    80001cfe:	0497ff63          	bgeu	a5,s1,80001d5c <sbi_scratch_init+0x108>
    80001d02:	039b4883          	lbu	a7,57(s6)
    80001d06:	038b4783          	lbu	a5,56(s6)
    80001d0a:	03ab4803          	lbu	a6,58(s6)
    80001d0e:	03bb4603          	lbu	a2,59(s6)
    80001d12:	03cb4683          	lbu	a3,60(s6)
    80001d16:	08a2                	slli	a7,a7,0x8
    80001d18:	00f8e8b3          	or	a7,a7,a5
    80001d1c:	03db4703          	lbu	a4,61(s6)
    80001d20:	0842                	slli	a6,a6,0x10
    80001d22:	01186833          	or	a6,a6,a7
    80001d26:	03eb4783          	lbu	a5,62(s6)
    80001d2a:	0662                	slli	a2,a2,0x18
    80001d2c:	01066633          	or	a2,a2,a6
    80001d30:	03fb4483          	lbu	s1,63(s6)
    80001d34:	1682                	slli	a3,a3,0x20
    80001d36:	8ed1                	or	a3,a3,a2
    80001d38:	1722                	slli	a4,a4,0x28
    80001d3a:	8f55                	or	a4,a4,a3
    80001d3c:	17c2                	slli	a5,a5,0x30
    80001d3e:	8fd9                	or	a5,a5,a4
    80001d40:	14e2                	slli	s1,s1,0x38
    80001d42:	8cdd                	or	s1,s1,a5
    80001d44:	e7fff0ef          	jal	ra,80001bc2 <sbi_platform_hart_index>
    80001d48:	02051593          	slli	a1,a0,0x20
    80001d4c:	9181                	srli	a1,a1,0x20
    80001d4e:	854e                	mv	a0,s3
    80001d50:	9482                	jalr	s1
    80001d52:	00ac3023          	sd	a0,0(s8)
    80001d56:	c119                	beqz	a0,80001d5c <sbi_scratch_init+0x108>
    80001d58:	017aa023          	sw	s7,0(s5)
    80001d5c:	0985                	addi	s3,s3,1
    80001d5e:	0c21                	addi	s8,s8,8
    80001d60:	f74994e3          	bne	s3,s4,80001cc8 <sbi_scratch_init+0x74>
    80001d64:	60a6                	ld	ra,72(sp)
    80001d66:	6406                	ld	s0,64(sp)
    80001d68:	74e2                	ld	s1,56(sp)
    80001d6a:	7942                	ld	s2,48(sp)
    80001d6c:	79a2                	ld	s3,40(sp)
    80001d6e:	7a02                	ld	s4,32(sp)
    80001d70:	6ae2                	ld	s5,24(sp)
    80001d72:	6b42                	ld	s6,16(sp)
    80001d74:	6ba2                	ld	s7,8(sp)
    80001d76:	6c02                	ld	s8,0(sp)
    80001d78:	4501                	li	a0,0
    80001d7a:	6161                	addi	sp,sp,80
    80001d7c:	8082                	ret

0000000080001d7e <sbi_scratch_alloc_offset>:
    80001d7e:	7139                	addi	sp,sp,-64
    80001d80:	f822                	sd	s0,48(sp)
    80001d82:	fc06                	sd	ra,56(sp)
    80001d84:	f426                	sd	s1,40(sp)
    80001d86:	f04a                	sd	s2,32(sp)
    80001d88:	ec4e                	sd	s3,24(sp)
    80001d8a:	e852                	sd	s4,16(sp)
    80001d8c:	e456                	sd	s5,8(sp)
    80001d8e:	0080                	addi	s0,sp,64
    80001d90:	c959                	beqz	a0,80001e26 <sbi_scratch_alloc_offset+0xa8>
    80001d92:	00757793          	andi	a5,a0,7
    80001d96:	84aa                	mv	s1,a0
    80001d98:	c781                	beqz	a5,80001da0 <sbi_scratch_alloc_offset+0x22>
    80001d9a:	ff857493          	andi	s1,a0,-8
    80001d9e:	04a1                	addi	s1,s1,8
    80001da0:	00011517          	auipc	a0,0x11
    80001da4:	28850513          	addi	a0,a0,648 # 80013028 <fdt_nop_node+0x3ec6>
    80001da8:	619020ef          	jal	ra,80004bc0 <spin_lock>
    80001dac:	00010797          	auipc	a5,0x10
    80001db0:	25c78793          	addi	a5,a5,604 # 80012008 <fdt_nop_node+0x2ea6>
    80001db4:	0007ba03          	ld	s4,0(a5)
    80001db8:	6685                	lui	a3,0x1
    80001dba:	00011517          	auipc	a0,0x11
    80001dbe:	26e50513          	addi	a0,a0,622 # 80013028 <fdt_nop_node+0x3ec6>
    80001dc2:	009a0733          	add	a4,s4,s1
    80001dc6:	04e6ec63          	bltu	a3,a4,80001e1e <sbi_scratch_alloc_offset+0xa0>
    80001dca:	e398                	sd	a4,0(a5)
    80001dcc:	613020ef          	jal	ra,80004bde <spin_unlock>
    80001dd0:	040a0b63          	beqz	s4,80001e26 <sbi_scratch_alloc_offset+0xa8>
    80001dd4:	00010a97          	auipc	s5,0x10
    80001dd8:	23ca8a93          	addi	s5,s5,572 # 80012010 <fdt_nop_node+0x2eae>
    80001ddc:	000aa783          	lw	a5,0(s5)
    80001de0:	c78d                	beqz	a5,80001e0a <sbi_scratch_alloc_offset+0x8c>
    80001de2:	00011997          	auipc	s3,0x11
    80001de6:	51e98993          	addi	s3,s3,1310 # 80013300 <fdt_nop_node+0x419e>
    80001dea:	4901                	li	s2,0
    80001dec:	0009b783          	ld	a5,0(s3)
    80001df0:	2905                	addiw	s2,s2,1
    80001df2:	8626                	mv	a2,s1
    80001df4:	4581                	li	a1,0
    80001df6:	01478533          	add	a0,a5,s4
    80001dfa:	c399                	beqz	a5,80001e00 <sbi_scratch_alloc_offset+0x82>
    80001dfc:	18a000ef          	jal	ra,80001f86 <sbi_memset>
    80001e00:	000aa783          	lw	a5,0(s5)
    80001e04:	09a1                	addi	s3,s3,8
    80001e06:	fef963e3          	bltu	s2,a5,80001dec <sbi_scratch_alloc_offset+0x6e>
    80001e0a:	70e2                	ld	ra,56(sp)
    80001e0c:	7442                	ld	s0,48(sp)
    80001e0e:	74a2                	ld	s1,40(sp)
    80001e10:	7902                	ld	s2,32(sp)
    80001e12:	69e2                	ld	s3,24(sp)
    80001e14:	6aa2                	ld	s5,8(sp)
    80001e16:	8552                	mv	a0,s4
    80001e18:	6a42                	ld	s4,16(sp)
    80001e1a:	6121                	addi	sp,sp,64
    80001e1c:	8082                	ret
    80001e1e:	5c1020ef          	jal	ra,80004bde <spin_unlock>
    80001e22:	4a01                	li	s4,0
    80001e24:	b7dd                	j	80001e0a <sbi_scratch_alloc_offset+0x8c>
    80001e26:	4a01                	li	s4,0
    80001e28:	b7cd                	j	80001e0a <sbi_scratch_alloc_offset+0x8c>

0000000080001e2a <sbi_scratch_free_offset>:
    80001e2a:	1141                	addi	sp,sp,-16
    80001e2c:	e422                	sd	s0,8(sp)
    80001e2e:	0800                	addi	s0,sp,16
    80001e30:	6422                	ld	s0,8(sp)
    80001e32:	0141                	addi	sp,sp,16
    80001e34:	8082                	ret

0000000080001e36 <sbi_strcmp>:
    80001e36:	1141                	addi	sp,sp,-16
    80001e38:	e422                	sd	s0,8(sp)
    80001e3a:	0800                	addi	s0,sp,16
    80001e3c:	00054783          	lbu	a5,0(a0)
    80001e40:	0005c703          	lbu	a4,0(a1)
    80001e44:	00f70963          	beq	a4,a5,80001e56 <sbi_strcmp+0x20>
    80001e48:	a839                	j	80001e66 <sbi_strcmp+0x30>
    80001e4a:	00054783          	lbu	a5,0(a0)
    80001e4e:	0005c703          	lbu	a4,0(a1)
    80001e52:	00e79a63          	bne	a5,a4,80001e66 <sbi_strcmp+0x30>
    80001e56:	0505                	addi	a0,a0,1
    80001e58:	0585                	addi	a1,a1,1
    80001e5a:	fbe5                	bnez	a5,80001e4a <sbi_strcmp+0x14>
    80001e5c:	6422                	ld	s0,8(sp)
    80001e5e:	4501                	li	a0,0
    80001e60:	9d19                	subw	a0,a0,a4
    80001e62:	0141                	addi	sp,sp,16
    80001e64:	8082                	ret
    80001e66:	6422                	ld	s0,8(sp)
    80001e68:	0007851b          	sext.w	a0,a5
    80001e6c:	9d19                	subw	a0,a0,a4
    80001e6e:	0141                	addi	sp,sp,16
    80001e70:	8082                	ret

0000000080001e72 <sbi_strlen>:
    80001e72:	1141                	addi	sp,sp,-16
    80001e74:	e422                	sd	s0,8(sp)
    80001e76:	0800                	addi	s0,sp,16
    80001e78:	00054783          	lbu	a5,0(a0)
    80001e7c:	cf81                	beqz	a5,80001e94 <sbi_strlen+0x22>
    80001e7e:	872a                	mv	a4,a0
    80001e80:	4501                	li	a0,0
    80001e82:	0505                	addi	a0,a0,1
    80001e84:	00a707b3          	add	a5,a4,a0
    80001e88:	0007c783          	lbu	a5,0(a5)
    80001e8c:	fbfd                	bnez	a5,80001e82 <sbi_strlen+0x10>
    80001e8e:	6422                	ld	s0,8(sp)
    80001e90:	0141                	addi	sp,sp,16
    80001e92:	8082                	ret
    80001e94:	6422                	ld	s0,8(sp)
    80001e96:	4501                	li	a0,0
    80001e98:	0141                	addi	sp,sp,16
    80001e9a:	8082                	ret

0000000080001e9c <sbi_strnlen>:
    80001e9c:	1141                	addi	sp,sp,-16
    80001e9e:	e422                	sd	s0,8(sp)
    80001ea0:	0800                	addi	s0,sp,16
    80001ea2:	00054783          	lbu	a5,0(a0)
    80001ea6:	c395                	beqz	a5,80001eca <sbi_strnlen+0x2e>
    80001ea8:	c18d                	beqz	a1,80001eca <sbi_strnlen+0x2e>
    80001eaa:	86aa                	mv	a3,a0
    80001eac:	4501                	li	a0,0
    80001eae:	a019                	j	80001eb4 <sbi_strnlen+0x18>
    80001eb0:	00e57a63          	bgeu	a0,a4,80001ec4 <sbi_strnlen+0x28>
    80001eb4:	0505                	addi	a0,a0,1
    80001eb6:	00a687b3          	add	a5,a3,a0
    80001eba:	0007c783          	lbu	a5,0(a5)
    80001ebe:	40a58733          	sub	a4,a1,a0
    80001ec2:	f7fd                	bnez	a5,80001eb0 <sbi_strnlen+0x14>
    80001ec4:	6422                	ld	s0,8(sp)
    80001ec6:	0141                	addi	sp,sp,16
    80001ec8:	8082                	ret
    80001eca:	6422                	ld	s0,8(sp)
    80001ecc:	4501                	li	a0,0
    80001ece:	0141                	addi	sp,sp,16
    80001ed0:	8082                	ret

0000000080001ed2 <sbi_strcpy>:
    80001ed2:	1141                	addi	sp,sp,-16
    80001ed4:	e422                	sd	s0,8(sp)
    80001ed6:	0800                	addi	s0,sp,16
    80001ed8:	0005c783          	lbu	a5,0(a1)
    80001edc:	cb89                	beqz	a5,80001eee <sbi_strcpy+0x1c>
    80001ede:	872a                	mv	a4,a0
    80001ee0:	00f70023          	sb	a5,0(a4)
    80001ee4:	0015c783          	lbu	a5,1(a1)
    80001ee8:	0585                	addi	a1,a1,1
    80001eea:	0705                	addi	a4,a4,1
    80001eec:	fbf5                	bnez	a5,80001ee0 <sbi_strcpy+0xe>
    80001eee:	6422                	ld	s0,8(sp)
    80001ef0:	0141                	addi	sp,sp,16
    80001ef2:	8082                	ret

0000000080001ef4 <sbi_strncpy>:
    80001ef4:	1141                	addi	sp,sp,-16
    80001ef6:	e422                	sd	s0,8(sp)
    80001ef8:	0800                	addi	s0,sp,16
    80001efa:	ce09                	beqz	a2,80001f14 <sbi_strncpy+0x20>
    80001efc:	962a                	add	a2,a2,a0
    80001efe:	87aa                	mv	a5,a0
    80001f00:	a029                	j	80001f0a <sbi_strncpy+0x16>
    80001f02:	fee78fa3          	sb	a4,-1(a5)
    80001f06:	00c78763          	beq	a5,a2,80001f14 <sbi_strncpy+0x20>
    80001f0a:	0005c703          	lbu	a4,0(a1)
    80001f0e:	0785                	addi	a5,a5,1
    80001f10:	0585                	addi	a1,a1,1
    80001f12:	fb65                	bnez	a4,80001f02 <sbi_strncpy+0xe>
    80001f14:	6422                	ld	s0,8(sp)
    80001f16:	0141                	addi	sp,sp,16
    80001f18:	8082                	ret

0000000080001f1a <sbi_strchr>:
    80001f1a:	1141                	addi	sp,sp,-16
    80001f1c:	e422                	sd	s0,8(sp)
    80001f1e:	0800                	addi	s0,sp,16
    80001f20:	00054783          	lbu	a5,0(a0)
    80001f24:	cb89                	beqz	a5,80001f36 <sbi_strchr+0x1c>
    80001f26:	0ff5f593          	zext.b	a1,a1
    80001f2a:	00f58763          	beq	a1,a5,80001f38 <sbi_strchr+0x1e>
    80001f2e:	00154783          	lbu	a5,1(a0)
    80001f32:	0505                	addi	a0,a0,1
    80001f34:	fbfd                	bnez	a5,80001f2a <sbi_strchr+0x10>
    80001f36:	4501                	li	a0,0
    80001f38:	6422                	ld	s0,8(sp)
    80001f3a:	0141                	addi	sp,sp,16
    80001f3c:	8082                	ret

0000000080001f3e <sbi_strrchr>:
    80001f3e:	1141                	addi	sp,sp,-16
    80001f40:	e422                	sd	s0,8(sp)
    80001f42:	0800                	addi	s0,sp,16
    80001f44:	00054783          	lbu	a5,0(a0)
    80001f48:	872a                	mv	a4,a0
    80001f4a:	0ff5f593          	zext.b	a1,a1
    80001f4e:	c395                	beqz	a5,80001f72 <sbi_strrchr+0x34>
    80001f50:	4781                	li	a5,0
    80001f52:	0785                	addi	a5,a5,1
    80001f54:	00f70533          	add	a0,a4,a5
    80001f58:	00054683          	lbu	a3,0(a0)
    80001f5c:	fafd                	bnez	a3,80001f52 <sbi_strrchr+0x14>
    80001f5e:	87b6                	mv	a5,a3
    80001f60:	02a77163          	bgeu	a4,a0,80001f82 <sbi_strrchr+0x44>
    80001f64:	00f58a63          	beq	a1,a5,80001f78 <sbi_strrchr+0x3a>
    80001f68:	157d                	addi	a0,a0,-1
    80001f6a:	00054783          	lbu	a5,0(a0)
    80001f6e:	fea71be3          	bne	a4,a0,80001f64 <sbi_strrchr+0x26>
    80001f72:	4501                	li	a0,0
    80001f74:	00b78563          	beq	a5,a1,80001f7e <sbi_strrchr+0x40>
    80001f78:	6422                	ld	s0,8(sp)
    80001f7a:	0141                	addi	sp,sp,16
    80001f7c:	8082                	ret
    80001f7e:	853a                	mv	a0,a4
    80001f80:	bfe5                	j	80001f78 <sbi_strrchr+0x3a>
    80001f82:	872a                	mv	a4,a0
    80001f84:	b7fd                	j	80001f72 <sbi_strrchr+0x34>

0000000080001f86 <sbi_memset>:
    80001f86:	1141                	addi	sp,sp,-16
    80001f88:	e422                	sd	s0,8(sp)
    80001f8a:	0800                	addi	s0,sp,16
    80001f8c:	00c50733          	add	a4,a0,a2
    80001f90:	ca09                	beqz	a2,80001fa2 <sbi_memset+0x1c>
    80001f92:	0ff5f593          	zext.b	a1,a1
    80001f96:	87aa                	mv	a5,a0
    80001f98:	0785                	addi	a5,a5,1
    80001f9a:	feb78fa3          	sb	a1,-1(a5)
    80001f9e:	fee79de3          	bne	a5,a4,80001f98 <sbi_memset+0x12>
    80001fa2:	6422                	ld	s0,8(sp)
    80001fa4:	0141                	addi	sp,sp,16
    80001fa6:	8082                	ret

0000000080001fa8 <sbi_memcpy>:
    80001fa8:	1141                	addi	sp,sp,-16
    80001faa:	e422                	sd	s0,8(sp)
    80001fac:	0800                	addi	s0,sp,16
    80001fae:	ca19                	beqz	a2,80001fc4 <sbi_memcpy+0x1c>
    80001fb0:	962a                	add	a2,a2,a0
    80001fb2:	87aa                	mv	a5,a0
    80001fb4:	0005c703          	lbu	a4,0(a1)
    80001fb8:	0785                	addi	a5,a5,1
    80001fba:	0585                	addi	a1,a1,1
    80001fbc:	fee78fa3          	sb	a4,-1(a5)
    80001fc0:	fec79ae3          	bne	a5,a2,80001fb4 <sbi_memcpy+0xc>
    80001fc4:	6422                	ld	s0,8(sp)
    80001fc6:	0141                	addi	sp,sp,16
    80001fc8:	8082                	ret

0000000080001fca <sbi_memmove>:
    80001fca:	1141                	addi	sp,sp,-16
    80001fcc:	e422                	sd	s0,8(sp)
    80001fce:	0800                	addi	s0,sp,16
    80001fd0:	00b50f63          	beq	a0,a1,80001fee <sbi_memmove+0x24>
    80001fd4:	02b57063          	bgeu	a0,a1,80001ff4 <sbi_memmove+0x2a>
    80001fd8:	ca19                	beqz	a2,80001fee <sbi_memmove+0x24>
    80001fda:	962a                	add	a2,a2,a0
    80001fdc:	87aa                	mv	a5,a0
    80001fde:	0005c703          	lbu	a4,0(a1)
    80001fe2:	0785                	addi	a5,a5,1
    80001fe4:	0585                	addi	a1,a1,1
    80001fe6:	fee78fa3          	sb	a4,-1(a5)
    80001fea:	fec79ae3          	bne	a5,a2,80001fde <sbi_memmove+0x14>
    80001fee:	6422                	ld	s0,8(sp)
    80001ff0:	0141                	addi	sp,sp,16
    80001ff2:	8082                	ret
    80001ff4:	fff60713          	addi	a4,a2,-1
    80001ff8:	00e507b3          	add	a5,a0,a4
    80001ffc:	95ba                	add	a1,a1,a4
    80001ffe:	da65                	beqz	a2,80001fee <sbi_memmove+0x24>
    80002000:	fff50693          	addi	a3,a0,-1
    80002004:	0005c703          	lbu	a4,0(a1)
    80002008:	17fd                	addi	a5,a5,-1
    8000200a:	15fd                	addi	a1,a1,-1
    8000200c:	00e780a3          	sb	a4,1(a5)
    80002010:	fef69ae3          	bne	a3,a5,80002004 <sbi_memmove+0x3a>
    80002014:	6422                	ld	s0,8(sp)
    80002016:	0141                	addi	sp,sp,16
    80002018:	8082                	ret

000000008000201a <sbi_memcmp>:
    8000201a:	1141                	addi	sp,sp,-16
    8000201c:	e422                	sd	s0,8(sp)
    8000201e:	0800                	addi	s0,sp,16
    80002020:	c215                	beqz	a2,80002044 <sbi_memcmp+0x2a>
    80002022:	962e                	add	a2,a2,a1
    80002024:	a019                	j	8000202a <sbi_memcmp+0x10>
    80002026:	00c58f63          	beq	a1,a2,80002044 <sbi_memcmp+0x2a>
    8000202a:	00054783          	lbu	a5,0(a0)
    8000202e:	0005c703          	lbu	a4,0(a1)
    80002032:	0505                	addi	a0,a0,1
    80002034:	0585                	addi	a1,a1,1
    80002036:	fee788e3          	beq	a5,a4,80002026 <sbi_memcmp+0xc>
    8000203a:	6422                	ld	s0,8(sp)
    8000203c:	40e7853b          	subw	a0,a5,a4
    80002040:	0141                	addi	sp,sp,16
    80002042:	8082                	ret
    80002044:	6422                	ld	s0,8(sp)
    80002046:	4501                	li	a0,0
    80002048:	0141                	addi	sp,sp,16
    8000204a:	8082                	ret

000000008000204c <sbi_memchr>:
    8000204c:	1141                	addi	sp,sp,-16
    8000204e:	e422                	sd	s0,8(sp)
    80002050:	0800                	addi	s0,sp,16
    80002052:	c20d                	beqz	a2,80002074 <sbi_memchr+0x28>
    80002054:	87aa                	mv	a5,a0
    80002056:	0ff5f593          	zext.b	a1,a1
    8000205a:	962a                	add	a2,a2,a0
    8000205c:	a019                	j	80002062 <sbi_memchr+0x16>
    8000205e:	00f60b63          	beq	a2,a5,80002074 <sbi_memchr+0x28>
    80002062:	0007c703          	lbu	a4,0(a5)
    80002066:	853e                	mv	a0,a5
    80002068:	0785                	addi	a5,a5,1
    8000206a:	feb71ae3          	bne	a4,a1,8000205e <sbi_memchr+0x12>
    8000206e:	6422                	ld	s0,8(sp)
    80002070:	0141                	addi	sp,sp,16
    80002072:	8082                	ret
    80002074:	6422                	ld	s0,8(sp)
    80002076:	4501                	li	a0,0
    80002078:	0141                	addi	sp,sp,16
    8000207a:	8082                	ret

000000008000207c <sbi_platform_timer_value>:
    8000207c:	cd49                	beqz	a0,80002116 <sbi_platform_timer_value+0x9a>
    8000207e:	05954783          	lbu	a5,89(a0)
    80002082:	05854703          	lbu	a4,88(a0)
    80002086:	05a54803          	lbu	a6,90(a0)
    8000208a:	05b54583          	lbu	a1,91(a0)
    8000208e:	05c54603          	lbu	a2,92(a0)
    80002092:	07a2                	slli	a5,a5,0x8
    80002094:	8fd9                	or	a5,a5,a4
    80002096:	05d54683          	lbu	a3,93(a0)
    8000209a:	0842                	slli	a6,a6,0x10
    8000209c:	00f86833          	or	a6,a6,a5
    800020a0:	05e54703          	lbu	a4,94(a0)
    800020a4:	05e2                	slli	a1,a1,0x18
    800020a6:	0105e5b3          	or	a1,a1,a6
    800020aa:	05f54783          	lbu	a5,95(a0)
    800020ae:	1602                	slli	a2,a2,0x20
    800020b0:	8e4d                	or	a2,a2,a1
    800020b2:	16a2                	slli	a3,a3,0x28
    800020b4:	8ed1                	or	a3,a3,a2
    800020b6:	1742                	slli	a4,a4,0x30
    800020b8:	8f55                	or	a4,a4,a3
    800020ba:	17e2                	slli	a5,a5,0x38
    800020bc:	8fd9                	or	a5,a5,a4
    800020be:	0917c803          	lbu	a6,145(a5)
    800020c2:	0907c703          	lbu	a4,144(a5)
    800020c6:	0927c503          	lbu	a0,146(a5)
    800020ca:	0937c583          	lbu	a1,147(a5)
    800020ce:	0947c603          	lbu	a2,148(a5)
    800020d2:	0822                	slli	a6,a6,0x8
    800020d4:	0957c683          	lbu	a3,149(a5)
    800020d8:	00e86833          	or	a6,a6,a4
    800020dc:	0542                	slli	a0,a0,0x10
    800020de:	0967c703          	lbu	a4,150(a5)
    800020e2:	01056533          	or	a0,a0,a6
    800020e6:	05e2                	slli	a1,a1,0x18
    800020e8:	8dc9                	or	a1,a1,a0
    800020ea:	0977c783          	lbu	a5,151(a5)
    800020ee:	1602                	slli	a2,a2,0x20
    800020f0:	8e4d                	or	a2,a2,a1
    800020f2:	16a2                	slli	a3,a3,0x28
    800020f4:	8ed1                	or	a3,a3,a2
    800020f6:	1742                	slli	a4,a4,0x30
    800020f8:	8f55                	or	a4,a4,a3
    800020fa:	17e2                	slli	a5,a5,0x38
    800020fc:	8fd9                	or	a5,a5,a4
    800020fe:	4501                	li	a0,0
    80002100:	cb91                	beqz	a5,80002114 <sbi_platform_timer_value+0x98>
    80002102:	1141                	addi	sp,sp,-16
    80002104:	e022                	sd	s0,0(sp)
    80002106:	e406                	sd	ra,8(sp)
    80002108:	0800                	addi	s0,sp,16
    8000210a:	9782                	jalr	a5
    8000210c:	60a2                	ld	ra,8(sp)
    8000210e:	6402                	ld	s0,0(sp)
    80002110:	0141                	addi	sp,sp,16
    80002112:	8082                	ret
    80002114:	8082                	ret
    80002116:	4501                	li	a0,0
    80002118:	8082                	ret

000000008000211a <get_ticks>:
    8000211a:	1141                	addi	sp,sp,-16
    8000211c:	e422                	sd	s0,8(sp)
    8000211e:	0800                	addi	s0,sp,16
    80002120:	c0102573          	rdtime	a0
    80002124:	6422                	ld	s0,8(sp)
    80002126:	0141                	addi	sp,sp,16
    80002128:	8082                	ret

000000008000212a <sbi_timer_value>:
    8000212a:	1141                	addi	sp,sp,-16
    8000212c:	e022                	sd	s0,0(sp)
    8000212e:	e406                	sd	ra,8(sp)
    80002130:	0800                	addi	s0,sp,16
    80002132:	00011897          	auipc	a7,0x11
    80002136:	efe8b883          	ld	a7,-258(a7) # 80013030 <fdt_nop_node+0x3ece>
    8000213a:	340027f3          	csrr	a5,mscratch
    8000213e:	0317c803          	lbu	a6,49(a5)
    80002142:	0307c503          	lbu	a0,48(a5)
    80002146:	0327c583          	lbu	a1,50(a5)
    8000214a:	0337c603          	lbu	a2,51(a5)
    8000214e:	0347c683          	lbu	a3,52(a5)
    80002152:	0822                	slli	a6,a6,0x8
    80002154:	0357c703          	lbu	a4,53(a5)
    80002158:	00a86833          	or	a6,a6,a0
    8000215c:	05c2                	slli	a1,a1,0x10
    8000215e:	0367c503          	lbu	a0,54(a5)
    80002162:	0105e5b3          	or	a1,a1,a6
    80002166:	0662                	slli	a2,a2,0x18
    80002168:	0377c803          	lbu	a6,55(a5)
    8000216c:	1682                	slli	a3,a3,0x20
    8000216e:	00b667b3          	or	a5,a2,a1
    80002172:	8edd                	or	a3,a3,a5
    80002174:	02871793          	slli	a5,a4,0x28
    80002178:	00d7e733          	or	a4,a5,a3
    8000217c:	03051793          	slli	a5,a0,0x30
    80002180:	8fd9                	or	a5,a5,a4
    80002182:	03881513          	slli	a0,a6,0x38
    80002186:	8d5d                	or	a0,a0,a5
    80002188:	9882                	jalr	a7
    8000218a:	60a2                	ld	ra,8(sp)
    8000218c:	6402                	ld	s0,0(sp)
    8000218e:	0141                	addi	sp,sp,16
    80002190:	8082                	ret

0000000080002192 <sbi_timer_virt_value>:
    80002192:	1101                	addi	sp,sp,-32
    80002194:	e822                	sd	s0,16(sp)
    80002196:	ec06                	sd	ra,24(sp)
    80002198:	e426                	sd	s1,8(sp)
    8000219a:	1000                	addi	s0,sp,32
    8000219c:	340024f3          	csrr	s1,mscratch
    800021a0:	00011797          	auipc	a5,0x11
    800021a4:	e987b783          	ld	a5,-360(a5) # 80013038 <fdt_nop_node+0x3ed6>
    800021a8:	94be                	add	s1,s1,a5
    800021aa:	00011897          	auipc	a7,0x11
    800021ae:	e868b883          	ld	a7,-378(a7) # 80013030 <fdt_nop_node+0x3ece>
    800021b2:	340027f3          	csrr	a5,mscratch
    800021b6:	0317c803          	lbu	a6,49(a5)
    800021ba:	0307c503          	lbu	a0,48(a5)
    800021be:	0327c583          	lbu	a1,50(a5)
    800021c2:	0337c603          	lbu	a2,51(a5)
    800021c6:	0347c683          	lbu	a3,52(a5)
    800021ca:	0822                	slli	a6,a6,0x8
    800021cc:	0357c703          	lbu	a4,53(a5)
    800021d0:	00a86833          	or	a6,a6,a0
    800021d4:	05c2                	slli	a1,a1,0x10
    800021d6:	0367c503          	lbu	a0,54(a5)
    800021da:	0105e5b3          	or	a1,a1,a6
    800021de:	0662                	slli	a2,a2,0x18
    800021e0:	0377c803          	lbu	a6,55(a5)
    800021e4:	1682                	slli	a3,a3,0x20
    800021e6:	00b667b3          	or	a5,a2,a1
    800021ea:	8edd                	or	a3,a3,a5
    800021ec:	02871793          	slli	a5,a4,0x28
    800021f0:	00d7e733          	or	a4,a5,a3
    800021f4:	03051793          	slli	a5,a0,0x30
    800021f8:	8fd9                	or	a5,a5,a4
    800021fa:	03881513          	slli	a0,a6,0x38
    800021fe:	8d5d                	or	a0,a0,a5
    80002200:	9882                	jalr	a7
    80002202:	609c                	ld	a5,0(s1)
    80002204:	60e2                	ld	ra,24(sp)
    80002206:	6442                	ld	s0,16(sp)
    80002208:	64a2                	ld	s1,8(sp)
    8000220a:	953e                	add	a0,a0,a5
    8000220c:	6105                	addi	sp,sp,32
    8000220e:	8082                	ret

0000000080002210 <sbi_timer_get_delta>:
    80002210:	1141                	addi	sp,sp,-16
    80002212:	e422                	sd	s0,8(sp)
    80002214:	0800                	addi	s0,sp,16
    80002216:	34002773          	csrr	a4,mscratch
    8000221a:	6422                	ld	s0,8(sp)
    8000221c:	00011797          	auipc	a5,0x11
    80002220:	e1c7b783          	ld	a5,-484(a5) # 80013038 <fdt_nop_node+0x3ed6>
    80002224:	97ba                	add	a5,a5,a4
    80002226:	6388                	ld	a0,0(a5)
    80002228:	0141                	addi	sp,sp,16
    8000222a:	8082                	ret

000000008000222c <sbi_timer_set_delta>:
    8000222c:	1141                	addi	sp,sp,-16
    8000222e:	e422                	sd	s0,8(sp)
    80002230:	0800                	addi	s0,sp,16
    80002232:	34002773          	csrr	a4,mscratch
    80002236:	00011797          	auipc	a5,0x11
    8000223a:	e027b783          	ld	a5,-510(a5) # 80013038 <fdt_nop_node+0x3ed6>
    8000223e:	97ba                	add	a5,a5,a4
    80002240:	e388                	sd	a0,0(a5)
    80002242:	6422                	ld	s0,8(sp)
    80002244:	0141                	addi	sp,sp,16
    80002246:	8082                	ret

0000000080002248 <sbi_timer_set_delta_upper>:
    80002248:	1141                	addi	sp,sp,-16
    8000224a:	e422                	sd	s0,8(sp)
    8000224c:	0800                	addi	s0,sp,16
    8000224e:	340027f3          	csrr	a5,mscratch
    80002252:	00011717          	auipc	a4,0x11
    80002256:	de673703          	ld	a4,-538(a4) # 80013038 <fdt_nop_node+0x3ed6>
    8000225a:	97ba                	add	a5,a5,a4
    8000225c:	c3c8                	sw	a0,4(a5)
    8000225e:	6422                	ld	s0,8(sp)
    80002260:	0141                	addi	sp,sp,16
    80002262:	8082                	ret

0000000080002264 <sbi_timer_event_start>:
    80002264:	34002773          	csrr	a4,mscratch
    80002268:	03174783          	lbu	a5,49(a4)
    8000226c:	03074683          	lbu	a3,48(a4)
    80002270:	03274883          	lbu	a7,50(a4)
    80002274:	03374803          	lbu	a6,51(a4)
    80002278:	03474583          	lbu	a1,52(a4)
    8000227c:	07a2                	slli	a5,a5,0x8
    8000227e:	03574603          	lbu	a2,53(a4)
    80002282:	8fd5                	or	a5,a5,a3
    80002284:	08c2                	slli	a7,a7,0x10
    80002286:	03674683          	lbu	a3,54(a4)
    8000228a:	00f8e8b3          	or	a7,a7,a5
    8000228e:	0862                	slli	a6,a6,0x18
    80002290:	03774783          	lbu	a5,55(a4)
    80002294:	1582                	slli	a1,a1,0x20
    80002296:	01186733          	or	a4,a6,a7
    8000229a:	8dd9                	or	a1,a1,a4
    8000229c:	02861713          	slli	a4,a2,0x28
    800022a0:	00b76633          	or	a2,a4,a1
    800022a4:	03069713          	slli	a4,a3,0x30
    800022a8:	8f51                	or	a4,a4,a2
    800022aa:	17e2                	slli	a5,a5,0x38
    800022ac:	8fd9                	or	a5,a5,a4
    800022ae:	c7cd                	beqz	a5,80002358 <sbi_timer_event_start+0xf4>
    800022b0:	0597c883          	lbu	a7,89(a5)
    800022b4:	0587c703          	lbu	a4,88(a5)
    800022b8:	05a7c803          	lbu	a6,90(a5)
    800022bc:	05b7c583          	lbu	a1,91(a5)
    800022c0:	05c7c603          	lbu	a2,92(a5)
    800022c4:	08a2                	slli	a7,a7,0x8
    800022c6:	00e8e8b3          	or	a7,a7,a4
    800022ca:	05d7c683          	lbu	a3,93(a5)
    800022ce:	0842                	slli	a6,a6,0x10
    800022d0:	01186833          	or	a6,a6,a7
    800022d4:	05e7c703          	lbu	a4,94(a5)
    800022d8:	05e2                	slli	a1,a1,0x18
    800022da:	0105e5b3          	or	a1,a1,a6
    800022de:	05f7c783          	lbu	a5,95(a5)
    800022e2:	1602                	slli	a2,a2,0x20
    800022e4:	8e4d                	or	a2,a2,a1
    800022e6:	16a2                	slli	a3,a3,0x28
    800022e8:	8ed1                	or	a3,a3,a2
    800022ea:	1742                	slli	a4,a4,0x30
    800022ec:	8f55                	or	a4,a4,a3
    800022ee:	17e2                	slli	a5,a5,0x38
    800022f0:	8fd9                	or	a5,a5,a4
    800022f2:	0997c883          	lbu	a7,153(a5)
    800022f6:	0987c703          	lbu	a4,152(a5)
    800022fa:	09a7c803          	lbu	a6,154(a5)
    800022fe:	09b7c583          	lbu	a1,155(a5)
    80002302:	09c7c603          	lbu	a2,156(a5)
    80002306:	08a2                	slli	a7,a7,0x8
    80002308:	09d7c683          	lbu	a3,157(a5)
    8000230c:	00e8e8b3          	or	a7,a7,a4
    80002310:	0842                	slli	a6,a6,0x10
    80002312:	09e7c703          	lbu	a4,158(a5)
    80002316:	01186833          	or	a6,a6,a7
    8000231a:	05e2                	slli	a1,a1,0x18
    8000231c:	09f7c783          	lbu	a5,159(a5)
    80002320:	0105e5b3          	or	a1,a1,a6
    80002324:	1602                	slli	a2,a2,0x20
    80002326:	8e4d                	or	a2,a2,a1
    80002328:	16a2                	slli	a3,a3,0x28
    8000232a:	8ed1                	or	a3,a3,a2
    8000232c:	1742                	slli	a4,a4,0x30
    8000232e:	8f55                	or	a4,a4,a3
    80002330:	17e2                	slli	a5,a5,0x38
    80002332:	8fd9                	or	a5,a5,a4
    80002334:	c395                	beqz	a5,80002358 <sbi_timer_event_start+0xf4>
    80002336:	1141                	addi	sp,sp,-16
    80002338:	e022                	sd	s0,0(sp)
    8000233a:	e406                	sd	ra,8(sp)
    8000233c:	0800                	addi	s0,sp,16
    8000233e:	9782                	jalr	a5
    80002340:	02000793          	li	a5,32
    80002344:	3447b073          	csrc	mip,a5
    80002348:	08000793          	li	a5,128
    8000234c:	3047a073          	csrs	mie,a5
    80002350:	60a2                	ld	ra,8(sp)
    80002352:	6402                	ld	s0,0(sp)
    80002354:	0141                	addi	sp,sp,16
    80002356:	8082                	ret
    80002358:	02000793          	li	a5,32
    8000235c:	3447b073          	csrc	mip,a5
    80002360:	08000793          	li	a5,128
    80002364:	3047a073          	csrs	mie,a5
    80002368:	8082                	ret

000000008000236a <sbi_timer_process>:
    8000236a:	1141                	addi	sp,sp,-16
    8000236c:	e422                	sd	s0,8(sp)
    8000236e:	0800                	addi	s0,sp,16
    80002370:	08000793          	li	a5,128
    80002374:	3047b073          	csrc	mie,a5
    80002378:	02000793          	li	a5,32
    8000237c:	3447a073          	csrs	mip,a5
    80002380:	6422                	ld	s0,8(sp)
    80002382:	0141                	addi	sp,sp,16
    80002384:	8082                	ret

0000000080002386 <sbi_timer_init>:
    80002386:	7179                	addi	sp,sp,-48
    80002388:	f022                	sd	s0,32(sp)
    8000238a:	ec26                	sd	s1,24(sp)
    8000238c:	e44e                	sd	s3,8(sp)
    8000238e:	f406                	sd	ra,40(sp)
    80002390:	e84a                	sd	s2,16(sp)
    80002392:	1800                	addi	s0,sp,48
    80002394:	84aa                	mv	s1,a0
    80002396:	03154503          	lbu	a0,49(a0)
    8000239a:	0304c783          	lbu	a5,48(s1)
    8000239e:	0324c603          	lbu	a2,50(s1)
    800023a2:	0334c683          	lbu	a3,51(s1)
    800023a6:	0344c903          	lbu	s2,52(s1)
    800023aa:	0522                	slli	a0,a0,0x8
    800023ac:	8d5d                	or	a0,a0,a5
    800023ae:	0354c703          	lbu	a4,53(s1)
    800023b2:	0642                	slli	a2,a2,0x10
    800023b4:	8e49                	or	a2,a2,a0
    800023b6:	0364c783          	lbu	a5,54(s1)
    800023ba:	06e2                	slli	a3,a3,0x18
    800023bc:	0374c503          	lbu	a0,55(s1)
    800023c0:	8ed1                	or	a3,a3,a2
    800023c2:	1902                	slli	s2,s2,0x20
    800023c4:	00d96933          	or	s2,s2,a3
    800023c8:	1722                	slli	a4,a4,0x28
    800023ca:	01276933          	or	s2,a4,s2
    800023ce:	17c2                	slli	a5,a5,0x30
    800023d0:	0127e7b3          	or	a5,a5,s2
    800023d4:	03851913          	slli	s2,a0,0x38
    800023d8:	89ae                	mv	s3,a1
    800023da:	00f96933          	or	s2,s2,a5
    800023de:	0e059e63          	bnez	a1,800024da <sbi_timer_init+0x154>
    800023e2:	00011517          	auipc	a0,0x11
    800023e6:	c5653503          	ld	a0,-938(a0) # 80013038 <fdt_nop_node+0x3ed6>
    800023ea:	10050563          	beqz	a0,800024f4 <sbi_timer_init+0x16e>
    800023ee:	9526                	add	a0,a0,s1
    800023f0:	00053023          	sd	zero,0(a0)
    800023f4:	08090b63          	beqz	s2,8000248a <sbi_timer_init+0x104>
    800023f8:	05994783          	lbu	a5,89(s2)
    800023fc:	05894703          	lbu	a4,88(s2)
    80002400:	05a94503          	lbu	a0,90(s2)
    80002404:	05b94583          	lbu	a1,91(s2)
    80002408:	05c94603          	lbu	a2,92(s2)
    8000240c:	07a2                	slli	a5,a5,0x8
    8000240e:	8fd9                	or	a5,a5,a4
    80002410:	05d94683          	lbu	a3,93(s2)
    80002414:	0542                	slli	a0,a0,0x10
    80002416:	8d5d                	or	a0,a0,a5
    80002418:	05e94703          	lbu	a4,94(s2)
    8000241c:	05e2                	slli	a1,a1,0x18
    8000241e:	8dc9                	or	a1,a1,a0
    80002420:	05f94783          	lbu	a5,95(s2)
    80002424:	1602                	slli	a2,a2,0x20
    80002426:	8e4d                	or	a2,a2,a1
    80002428:	16a2                	slli	a3,a3,0x28
    8000242a:	8ed1                	or	a3,a3,a2
    8000242c:	1742                	slli	a4,a4,0x30
    8000242e:	8f55                	or	a4,a4,a3
    80002430:	17e2                	slli	a5,a5,0x38
    80002432:	8fd9                	or	a5,a5,a4
    80002434:	0a97c803          	lbu	a6,169(a5)
    80002438:	0a87c703          	lbu	a4,168(a5)
    8000243c:	0aa7c503          	lbu	a0,170(a5)
    80002440:	0ab7c583          	lbu	a1,171(a5)
    80002444:	0ac7c603          	lbu	a2,172(a5)
    80002448:	0822                	slli	a6,a6,0x8
    8000244a:	0ad7c683          	lbu	a3,173(a5)
    8000244e:	00e86833          	or	a6,a6,a4
    80002452:	0542                	slli	a0,a0,0x10
    80002454:	0ae7c703          	lbu	a4,174(a5)
    80002458:	01056533          	or	a0,a0,a6
    8000245c:	05e2                	slli	a1,a1,0x18
    8000245e:	0af7c783          	lbu	a5,175(a5)
    80002462:	8dc9                	or	a1,a1,a0
    80002464:	1602                	slli	a2,a2,0x20
    80002466:	8e4d                	or	a2,a2,a1
    80002468:	16a2                	slli	a3,a3,0x28
    8000246a:	8ed1                	or	a3,a3,a2
    8000246c:	1742                	slli	a4,a4,0x30
    8000246e:	8f55                	or	a4,a4,a3
    80002470:	17e2                	slli	a5,a5,0x38
    80002472:	8fd9                	or	a5,a5,a4
    80002474:	cb99                	beqz	a5,8000248a <sbi_timer_init+0x104>
    80002476:	854e                	mv	a0,s3
    80002478:	9782                	jalr	a5
    8000247a:	c901                	beqz	a0,8000248a <sbi_timer_init+0x104>
    8000247c:	70a2                	ld	ra,40(sp)
    8000247e:	7402                	ld	s0,32(sp)
    80002480:	64e2                	ld	s1,24(sp)
    80002482:	6942                	ld	s2,16(sp)
    80002484:	69a2                	ld	s3,8(sp)
    80002486:	6145                	addi	sp,sp,48
    80002488:	8082                	ret
    8000248a:	45a1                	li	a1,8
    8000248c:	8526                	mv	a0,s1
    8000248e:	36d040ef          	jal	ra,80006ffa <sbi_hart_has_feature>
    80002492:	e505                	bnez	a0,800024ba <sbi_timer_init+0x134>
    80002494:	04894783          	lbu	a5,72(s2)
    80002498:	8b85                	andi	a5,a5,1
    8000249a:	c3a5                	beqz	a5,800024fa <sbi_timer_init+0x174>
    8000249c:	70a2                	ld	ra,40(sp)
    8000249e:	7402                	ld	s0,32(sp)
    800024a0:	00000797          	auipc	a5,0x0
    800024a4:	bdc78793          	addi	a5,a5,-1060 # 8000207c <sbi_platform_timer_value>
    800024a8:	00011717          	auipc	a4,0x11
    800024ac:	b8f73423          	sd	a5,-1144(a4) # 80013030 <fdt_nop_node+0x3ece>
    800024b0:	64e2                	ld	s1,24(sp)
    800024b2:	6942                	ld	s2,16(sp)
    800024b4:	69a2                	ld	s3,8(sp)
    800024b6:	6145                	addi	sp,sp,48
    800024b8:	8082                	ret
    800024ba:	70a2                	ld	ra,40(sp)
    800024bc:	7402                	ld	s0,32(sp)
    800024be:	00000797          	auipc	a5,0x0
    800024c2:	c5c78793          	addi	a5,a5,-932 # 8000211a <get_ticks>
    800024c6:	00011717          	auipc	a4,0x11
    800024ca:	b6f73523          	sd	a5,-1174(a4) # 80013030 <fdt_nop_node+0x3ece>
    800024ce:	64e2                	ld	s1,24(sp)
    800024d0:	6942                	ld	s2,16(sp)
    800024d2:	69a2                	ld	s3,8(sp)
    800024d4:	4501                	li	a0,0
    800024d6:	6145                	addi	sp,sp,48
    800024d8:	8082                	ret
    800024da:	0000e597          	auipc	a1,0xe
    800024de:	e6658593          	addi	a1,a1,-410 # 80010340 <fdt_nop_node+0x11de>
    800024e2:	4521                	li	a0,8
    800024e4:	89bff0ef          	jal	ra,80001d7e <sbi_scratch_alloc_offset>
    800024e8:	00011797          	auipc	a5,0x11
    800024ec:	b4a7b823          	sd	a0,-1200(a5) # 80013038 <fdt_nop_node+0x3ed6>
    800024f0:	ee051fe3          	bnez	a0,800023ee <sbi_timer_init+0x68>
    800024f4:	c1200513          	li	a0,-1006
    800024f8:	b751                	j	8000247c <sbi_timer_init+0xf6>
    800024fa:	c1800513          	li	a0,-1000
    800024fe:	bfbd                	j	8000247c <sbi_timer_init+0xf6>

0000000080002500 <sbi_timer_exit>:
    80002500:	1101                	addi	sp,sp,-32
    80002502:	e822                	sd	s0,16(sp)
    80002504:	e426                	sd	s1,8(sp)
    80002506:	ec06                	sd	ra,24(sp)
    80002508:	1000                	addi	s0,sp,32
    8000250a:	03154783          	lbu	a5,49(a0)
    8000250e:	84aa                	mv	s1,a0
    80002510:	03054703          	lbu	a4,48(a0)
    80002514:	03254503          	lbu	a0,50(a0)
    80002518:	0334c583          	lbu	a1,51(s1)
    8000251c:	0344c603          	lbu	a2,52(s1)
    80002520:	07a2                	slli	a5,a5,0x8
    80002522:	8fd9                	or	a5,a5,a4
    80002524:	0354c683          	lbu	a3,53(s1)
    80002528:	0542                	slli	a0,a0,0x10
    8000252a:	8d5d                	or	a0,a0,a5
    8000252c:	0364c703          	lbu	a4,54(s1)
    80002530:	05e2                	slli	a1,a1,0x18
    80002532:	0374c783          	lbu	a5,55(s1)
    80002536:	8dc9                	or	a1,a1,a0
    80002538:	1602                	slli	a2,a2,0x20
    8000253a:	8e4d                	or	a2,a2,a1
    8000253c:	16a2                	slli	a3,a3,0x28
    8000253e:	8ed1                	or	a3,a3,a2
    80002540:	1742                	slli	a4,a4,0x30
    80002542:	8f55                	or	a4,a4,a3
    80002544:	17e2                	slli	a5,a5,0x38
    80002546:	8fd9                	or	a5,a5,a4
    80002548:	c3d9                	beqz	a5,800025ce <sbi_timer_exit+0xce>
    8000254a:	0597c803          	lbu	a6,89(a5)
    8000254e:	0587c703          	lbu	a4,88(a5)
    80002552:	05a7c503          	lbu	a0,90(a5)
    80002556:	05b7c583          	lbu	a1,91(a5)
    8000255a:	05c7c603          	lbu	a2,92(a5)
    8000255e:	0822                	slli	a6,a6,0x8
    80002560:	00e86833          	or	a6,a6,a4
    80002564:	05d7c683          	lbu	a3,93(a5)
    80002568:	0542                	slli	a0,a0,0x10
    8000256a:	01056533          	or	a0,a0,a6
    8000256e:	05e7c703          	lbu	a4,94(a5)
    80002572:	05e2                	slli	a1,a1,0x18
    80002574:	8dc9                	or	a1,a1,a0
    80002576:	05f7c783          	lbu	a5,95(a5)
    8000257a:	1602                	slli	a2,a2,0x20
    8000257c:	8e4d                	or	a2,a2,a1
    8000257e:	16a2                	slli	a3,a3,0x28
    80002580:	8ed1                	or	a3,a3,a2
    80002582:	1742                	slli	a4,a4,0x30
    80002584:	8f55                	or	a4,a4,a3
    80002586:	17e2                	slli	a5,a5,0x38
    80002588:	8fd9                	or	a5,a5,a4
    8000258a:	0a17c803          	lbu	a6,161(a5)
    8000258e:	0a07c703          	lbu	a4,160(a5)
    80002592:	0a27c503          	lbu	a0,162(a5)
    80002596:	0a37c583          	lbu	a1,163(a5)
    8000259a:	0a47c603          	lbu	a2,164(a5)
    8000259e:	0822                	slli	a6,a6,0x8
    800025a0:	0a57c683          	lbu	a3,165(a5)
    800025a4:	00e86833          	or	a6,a6,a4
    800025a8:	0542                	slli	a0,a0,0x10
    800025aa:	0a67c703          	lbu	a4,166(a5)
    800025ae:	01056533          	or	a0,a0,a6
    800025b2:	05e2                	slli	a1,a1,0x18
    800025b4:	0a77c783          	lbu	a5,167(a5)
    800025b8:	8dc9                	or	a1,a1,a0
    800025ba:	1602                	slli	a2,a2,0x20
    800025bc:	8e4d                	or	a2,a2,a1
    800025be:	16a2                	slli	a3,a3,0x28
    800025c0:	8ed1                	or	a3,a3,a2
    800025c2:	1742                	slli	a4,a4,0x30
    800025c4:	8f55                	or	a4,a4,a3
    800025c6:	17e2                	slli	a5,a5,0x38
    800025c8:	8fd9                	or	a5,a5,a4
    800025ca:	c391                	beqz	a5,800025ce <sbi_timer_exit+0xce>
    800025cc:	9782                	jalr	a5
    800025ce:	02000793          	li	a5,32
    800025d2:	3447b073          	csrc	mip,a5
    800025d6:	08000793          	li	a5,128
    800025da:	3047b073          	csrc	mie,a5
    800025de:	0314c783          	lbu	a5,49(s1)
    800025e2:	0304c703          	lbu	a4,48(s1)
    800025e6:	0324c503          	lbu	a0,50(s1)
    800025ea:	0334c583          	lbu	a1,51(s1)
    800025ee:	0344c603          	lbu	a2,52(s1)
    800025f2:	07a2                	slli	a5,a5,0x8
    800025f4:	8fd9                	or	a5,a5,a4
    800025f6:	0354c683          	lbu	a3,53(s1)
    800025fa:	0542                	slli	a0,a0,0x10
    800025fc:	8d5d                	or	a0,a0,a5
    800025fe:	0364c703          	lbu	a4,54(s1)
    80002602:	05e2                	slli	a1,a1,0x18
    80002604:	0374c783          	lbu	a5,55(s1)
    80002608:	8dc9                	or	a1,a1,a0
    8000260a:	1602                	slli	a2,a2,0x20
    8000260c:	8e4d                	or	a2,a2,a1
    8000260e:	16a2                	slli	a3,a3,0x28
    80002610:	8ed1                	or	a3,a3,a2
    80002612:	1742                	slli	a4,a4,0x30
    80002614:	8f55                	or	a4,a4,a3
    80002616:	17e2                	slli	a5,a5,0x38
    80002618:	8fd9                	or	a5,a5,a4
    8000261a:	c3d9                	beqz	a5,800026a0 <sbi_timer_exit+0x1a0>
    8000261c:	0597c803          	lbu	a6,89(a5)
    80002620:	0587c703          	lbu	a4,88(a5)
    80002624:	05a7c503          	lbu	a0,90(a5)
    80002628:	05b7c583          	lbu	a1,91(a5)
    8000262c:	05c7c603          	lbu	a2,92(a5)
    80002630:	0822                	slli	a6,a6,0x8
    80002632:	00e86833          	or	a6,a6,a4
    80002636:	05d7c683          	lbu	a3,93(a5)
    8000263a:	0542                	slli	a0,a0,0x10
    8000263c:	01056533          	or	a0,a0,a6
    80002640:	05e7c703          	lbu	a4,94(a5)
    80002644:	05e2                	slli	a1,a1,0x18
    80002646:	8dc9                	or	a1,a1,a0
    80002648:	05f7c783          	lbu	a5,95(a5)
    8000264c:	1602                	slli	a2,a2,0x20
    8000264e:	8e4d                	or	a2,a2,a1
    80002650:	16a2                	slli	a3,a3,0x28
    80002652:	8ed1                	or	a3,a3,a2
    80002654:	1742                	slli	a4,a4,0x30
    80002656:	8f55                	or	a4,a4,a3
    80002658:	17e2                	slli	a5,a5,0x38
    8000265a:	8fd9                	or	a5,a5,a4
    8000265c:	0b17c803          	lbu	a6,177(a5)
    80002660:	0b07c703          	lbu	a4,176(a5)
    80002664:	0b27c503          	lbu	a0,178(a5)
    80002668:	0b37c583          	lbu	a1,179(a5)
    8000266c:	0b47c603          	lbu	a2,180(a5)
    80002670:	0822                	slli	a6,a6,0x8
    80002672:	0b57c683          	lbu	a3,181(a5)
    80002676:	00e86833          	or	a6,a6,a4
    8000267a:	0542                	slli	a0,a0,0x10
    8000267c:	0b67c703          	lbu	a4,182(a5)
    80002680:	01056533          	or	a0,a0,a6
    80002684:	05e2                	slli	a1,a1,0x18
    80002686:	0b77c783          	lbu	a5,183(a5)
    8000268a:	8dc9                	or	a1,a1,a0
    8000268c:	1602                	slli	a2,a2,0x20
    8000268e:	8e4d                	or	a2,a2,a1
    80002690:	16a2                	slli	a3,a3,0x28
    80002692:	8ed1                	or	a3,a3,a2
    80002694:	1742                	slli	a4,a4,0x30
    80002696:	8f55                	or	a4,a4,a3
    80002698:	17e2                	slli	a5,a5,0x38
    8000269a:	8fd9                	or	a5,a5,a4
    8000269c:	c391                	beqz	a5,800026a0 <sbi_timer_exit+0x1a0>
    8000269e:	9782                	jalr	a5
    800026a0:	60e2                	ld	ra,24(sp)
    800026a2:	6442                	ld	s0,16(sp)
    800026a4:	64a2                	ld	s1,8(sp)
    800026a6:	6105                	addi	sp,sp,32
    800026a8:	8082                	ret

00000000800026aa <sbi_tlb_local_flush>:
    800026aa:	7139                	addi	sp,sp,-64
    800026ac:	f822                	sd	s0,48(sp)
    800026ae:	fc06                	sd	ra,56(sp)
    800026b0:	f426                	sd	s1,40(sp)
    800026b2:	f04a                	sd	s2,32(sp)
    800026b4:	ec4e                	sd	s3,24(sp)
    800026b6:	e852                	sd	s4,16(sp)
    800026b8:	e456                	sd	s5,8(sp)
    800026ba:	e05a                	sd	s6,0(sp)
    800026bc:	0080                	addi	s0,sp,64
    800026be:	710c                	ld	a1,32(a0)
    800026c0:	4799                	li	a5,6
    800026c2:	16b7e663          	bltu	a5,a1,8000282e <sbi_tlb_local_flush+0x184>
    800026c6:	0000e697          	auipc	a3,0xe
    800026ca:	d0668693          	addi	a3,a3,-762 # 800103cc <fdt_nop_node+0x126a>
    800026ce:	00259713          	slli	a4,a1,0x2
    800026d2:	9736                	add	a4,a4,a3
    800026d4:	431c                	lw	a5,0(a4)
    800026d6:	97b6                	add	a5,a5,a3
    800026d8:	8782                	jr	a5
    800026da:	01853983          	ld	s3,24(a0)
    800026de:	03fff7b7          	lui	a5,0x3fff
    800026e2:	1782                	slli	a5,a5,0x20
    800026e4:	19b2                	slli	s3,s3,0x2c
    800026e6:	00053a03          	ld	s4,0(a0)
    800026ea:	00853903          	ld	s2,8(a0)
    800026ee:	01053a83          	ld	s5,16(a0)
    800026f2:	00f9f9b3          	and	s3,s3,a5
    800026f6:	680999f3          	csrrw	s3,0x680,s3
    800026fa:	012a67b3          	or	a5,s4,s2
    800026fe:	14078563          	beqz	a5,80002848 <sbi_tlb_local_flush+0x19e>
    80002702:	57fd                	li	a5,-1
    80002704:	14f90a63          	beq	s2,a5,80002858 <sbi_tlb_local_flush+0x1ae>
    80002708:	4481                	li	s1,0
    8000270a:	6b05                	lui	s6,0x1
    8000270c:	00090a63          	beqz	s2,80002720 <sbi_tlb_local_flush+0x76>
    80002710:	01448533          	add	a0,s1,s4
    80002714:	85d6                	mv	a1,s5
    80002716:	94da                	add	s1,s1,s6
    80002718:	3f0050ef          	jal	ra,80007b08 <__sbi_hfence_vvma_asid_va>
    8000271c:	ff24eae3          	bltu	s1,s2,80002710 <sbi_tlb_local_flush+0x66>
    80002720:	68099073          	csrw	0x680,s3
    80002724:	a019                	j	8000272a <sbi_tlb_local_flush+0x80>
    80002726:	0000100f          	fence.i
    8000272a:	70e2                	ld	ra,56(sp)
    8000272c:	7442                	ld	s0,48(sp)
    8000272e:	74a2                	ld	s1,40(sp)
    80002730:	7902                	ld	s2,32(sp)
    80002732:	69e2                	ld	s3,24(sp)
    80002734:	6a42                	ld	s4,16(sp)
    80002736:	6aa2                	ld	s5,8(sp)
    80002738:	6b02                	ld	s6,0(sp)
    8000273a:	6121                	addi	sp,sp,64
    8000273c:	8082                	ret
    8000273e:	6114                	ld	a3,0(a0)
    80002740:	6518                	ld	a4,8(a0)
    80002742:	00e6e7b3          	or	a5,a3,a4
    80002746:	0e078b63          	beqz	a5,8000283c <sbi_tlb_local_flush+0x192>
    8000274a:	57fd                	li	a5,-1
    8000274c:	0ef70863          	beq	a4,a5,8000283c <sbi_tlb_local_flush+0x192>
    80002750:	6605                	lui	a2,0x1
    80002752:	df61                	beqz	a4,8000272a <sbi_tlb_local_flush+0x80>
    80002754:	00b687b3          	add	a5,a3,a1
    80002758:	12078073          	sfence.vma	a5
    8000275c:	95b2                	add	a1,a1,a2
    8000275e:	fee5ebe3          	bltu	a1,a4,80002754 <sbi_tlb_local_flush+0xaa>
    80002762:	b7e1                	j	8000272a <sbi_tlb_local_flush+0x80>
    80002764:	6110                	ld	a2,0(a0)
    80002766:	6514                	ld	a3,8(a0)
    80002768:	00d667b3          	or	a5,a2,a3
    8000276c:	cbe1                	beqz	a5,8000283c <sbi_tlb_local_flush+0x192>
    8000276e:	57fd                	li	a5,-1
    80002770:	690c                	ld	a1,16(a0)
    80002772:	0ef68063          	beq	a3,a5,80002852 <sbi_tlb_local_flush+0x1a8>
    80002776:	4781                	li	a5,0
    80002778:	6505                	lui	a0,0x1
    8000277a:	dac5                	beqz	a3,8000272a <sbi_tlb_local_flush+0x80>
    8000277c:	00c78733          	add	a4,a5,a2
    80002780:	12b70073          	sfence.vma	a4,a1
    80002784:	97aa                	add	a5,a5,a0
    80002786:	fed7ebe3          	bltu	a5,a3,8000277c <sbi_tlb_local_flush+0xd2>
    8000278a:	b745                	j	8000272a <sbi_tlb_local_flush+0x80>
    8000278c:	00053983          	ld	s3,0(a0) # 1000 <_fw_start-0x7ffff000>
    80002790:	00853903          	ld	s2,8(a0)
    80002794:	0129e7b3          	or	a5,s3,s2
    80002798:	c7cd                	beqz	a5,80002842 <sbi_tlb_local_flush+0x198>
    8000279a:	57fd                	li	a5,-1
    8000279c:	01853a03          	ld	s4,24(a0)
    800027a0:	0cf90263          	beq	s2,a5,80002864 <sbi_tlb_local_flush+0x1ba>
    800027a4:	4481                	li	s1,0
    800027a6:	6a85                	lui	s5,0x1
    800027a8:	f80901e3          	beqz	s2,8000272a <sbi_tlb_local_flush+0x80>
    800027ac:	00998533          	add	a0,s3,s1
    800027b0:	85d2                	mv	a1,s4
    800027b2:	94d6                	add	s1,s1,s5
    800027b4:	334050ef          	jal	ra,80007ae8 <__sbi_hfence_gvma_vmid_gpa>
    800027b8:	ff24eae3          	bltu	s1,s2,800027ac <sbi_tlb_local_flush+0x102>
    800027bc:	b7bd                	j	8000272a <sbi_tlb_local_flush+0x80>
    800027be:	01853983          	ld	s3,24(a0)
    800027c2:	03fff7b7          	lui	a5,0x3fff
    800027c6:	1782                	slli	a5,a5,0x20
    800027c8:	19b2                	slli	s3,s3,0x2c
    800027ca:	00053a03          	ld	s4,0(a0)
    800027ce:	00853903          	ld	s2,8(a0)
    800027d2:	00f9f9b3          	and	s3,s3,a5
    800027d6:	680999f3          	csrrw	s3,0x680,s3
    800027da:	012a67b3          	or	a5,s4,s2
    800027de:	c7ad                	beqz	a5,80002848 <sbi_tlb_local_flush+0x19e>
    800027e0:	57fd                	li	a5,-1
    800027e2:	06f90363          	beq	s2,a5,80002848 <sbi_tlb_local_flush+0x19e>
    800027e6:	4481                	li	s1,0
    800027e8:	6a85                	lui	s5,0x1
    800027ea:	f2090be3          	beqz	s2,80002720 <sbi_tlb_local_flush+0x76>
    800027ee:	01448533          	add	a0,s1,s4
    800027f2:	94d6                	add	s1,s1,s5
    800027f4:	324050ef          	jal	ra,80007b18 <__sbi_hfence_vvma_va>
    800027f8:	ff24ebe3          	bltu	s1,s2,800027ee <sbi_tlb_local_flush+0x144>
    800027fc:	68099073          	csrw	0x680,s3
    80002800:	b72d                	j	8000272a <sbi_tlb_local_flush+0x80>
    80002802:	00053983          	ld	s3,0(a0)
    80002806:	00853903          	ld	s2,8(a0)
    8000280a:	0129e7b3          	or	a5,s3,s2
    8000280e:	cb95                	beqz	a5,80002842 <sbi_tlb_local_flush+0x198>
    80002810:	57fd                	li	a5,-1
    80002812:	02f90863          	beq	s2,a5,80002842 <sbi_tlb_local_flush+0x198>
    80002816:	4481                	li	s1,0
    80002818:	6a05                	lui	s4,0x1
    8000281a:	f00908e3          	beqz	s2,8000272a <sbi_tlb_local_flush+0x80>
    8000281e:	01348533          	add	a0,s1,s3
    80002822:	94d2                	add	s1,s1,s4
    80002824:	2d4050ef          	jal	ra,80007af8 <__sbi_hfence_gvma_gpa>
    80002828:	ff24ebe3          	bltu	s1,s2,8000281e <sbi_tlb_local_flush+0x174>
    8000282c:	bdfd                	j	8000272a <sbi_tlb_local_flush+0x80>
    8000282e:	0000e517          	auipc	a0,0xe
    80002832:	b2250513          	addi	a0,a0,-1246 # 80010350 <fdt_nop_node+0x11ee>
    80002836:	324030ef          	jal	ra,80005b5a <sbi_printf>
    8000283a:	bdc5                	j	8000272a <sbi_tlb_local_flush+0x80>
    8000283c:	12000073          	sfence.vma
    80002840:	b5ed                	j	8000272a <sbi_tlb_local_flush+0x80>
    80002842:	2be050ef          	jal	ra,80007b00 <__sbi_hfence_gvma_all>
    80002846:	b5d5                	j	8000272a <sbi_tlb_local_flush+0x80>
    80002848:	2d8050ef          	jal	ra,80007b20 <__sbi_hfence_vvma_all>
    8000284c:	68099073          	csrw	0x680,s3
    80002850:	bde9                	j	8000272a <sbi_tlb_local_flush+0x80>
    80002852:	12b00073          	sfence.vma	zero,a1
    80002856:	bdd1                	j	8000272a <sbi_tlb_local_flush+0x80>
    80002858:	8556                	mv	a0,s5
    8000285a:	2b6050ef          	jal	ra,80007b10 <__sbi_hfence_vvma_asid>
    8000285e:	68099073          	csrw	0x680,s3
    80002862:	b5e1                	j	8000272a <sbi_tlb_local_flush+0x80>
    80002864:	8552                	mv	a0,s4
    80002866:	28a050ef          	jal	ra,80007af0 <__sbi_hfence_gvma_vmid>
    8000286a:	b5c1                	j	8000272a <sbi_tlb_local_flush+0x80>

000000008000286c <sbi_tlb_entry_process>:
    8000286c:	7139                	addi	sp,sp,-64
    8000286e:	fc06                	sd	ra,56(sp)
    80002870:	f822                	sd	s0,48(sp)
    80002872:	f04a                	sd	s2,32(sp)
    80002874:	ec4e                	sd	s3,24(sp)
    80002876:	0080                	addi	s0,sp,64
    80002878:	f426                	sd	s1,40(sp)
    8000287a:	e852                	sd	s4,16(sp)
    8000287c:	e456                	sd	s5,8(sp)
    8000287e:	e05a                	sd	s6,0(sp)
    80002880:	02850993          	addi	s3,a0,40
    80002884:	e27ff0ef          	jal	ra,800026aa <sbi_tlb_local_flush>
    80002888:	08000593          	li	a1,128
    8000288c:	854e                	mv	a0,s3
    8000288e:	412020ef          	jal	ra,80004ca0 <find_first_bit>
    80002892:	0005091b          	sext.w	s2,a0
    80002896:	07f00793          	li	a5,127
    8000289a:	0527e863          	bltu	a5,s2,800028ea <sbi_tlb_entry_process+0x7e>
    8000289e:	00011a97          	auipc	s5,0x11
    800028a2:	a62a8a93          	addi	s5,s5,-1438 # 80013300 <fdt_nop_node+0x419e>
    800028a6:	00010b17          	auipc	s6,0x10
    800028aa:	7b2b0b13          	addi	s6,s6,1970 # 80013058 <fdt_nop_node+0x3ef6>
    800028ae:	07f00a13          	li	s4,127
    800028b2:	02091713          	slli	a4,s2,0x20
    800028b6:	01d75793          	srli	a5,a4,0x1d
    800028ba:	97d6                	add	a5,a5,s5
    800028bc:	6384                	ld	s1,0(a5)
    800028be:	c889                	beqz	s1,800028d0 <sbi_tlb_entry_process+0x64>
    800028c0:	000b3783          	ld	a5,0(s6)
    800028c4:	94be                	add	s1,s1,a5
    800028c6:	4585                	li	a1,1
    800028c8:	8526                	mv	a0,s1
    800028ca:	1ce020ef          	jal	ra,80004a98 <atomic_raw_xchg_ulong>
    800028ce:	fd65                	bnez	a0,800028c6 <sbi_tlb_entry_process+0x5a>
    800028d0:	0019061b          	addiw	a2,s2,1
    800028d4:	1602                	slli	a2,a2,0x20
    800028d6:	9201                	srli	a2,a2,0x20
    800028d8:	08000593          	li	a1,128
    800028dc:	854e                	mv	a0,s3
    800028de:	57c020ef          	jal	ra,80004e5a <find_next_bit>
    800028e2:	0005091b          	sext.w	s2,a0
    800028e6:	fd2a76e3          	bgeu	s4,s2,800028b2 <sbi_tlb_entry_process+0x46>
    800028ea:	70e2                	ld	ra,56(sp)
    800028ec:	7442                	ld	s0,48(sp)
    800028ee:	74a2                	ld	s1,40(sp)
    800028f0:	7902                	ld	s2,32(sp)
    800028f2:	69e2                	ld	s3,24(sp)
    800028f4:	6a42                	ld	s4,16(sp)
    800028f6:	6aa2                	ld	s5,8(sp)
    800028f8:	6b02                	ld	s6,0(sp)
    800028fa:	6121                	addi	sp,sp,64
    800028fc:	8082                	ret

00000000800028fe <sbi_tlb_process>:
    800028fe:	711d                	addi	sp,sp,-96
    80002900:	e8a2                	sd	s0,80(sp)
    80002902:	e4a6                	sd	s1,72(sp)
    80002904:	ec86                	sd	ra,88(sp)
    80002906:	1080                	addi	s0,sp,96
    80002908:	00010497          	auipc	s1,0x10
    8000290c:	7484b483          	ld	s1,1864(s1) # 80013050 <fdt_nop_node+0x3eee>
    80002910:	94aa                	add	s1,s1,a0
    80002912:	a019                	j	80002918 <sbi_tlb_process+0x1a>
    80002914:	f59ff0ef          	jal	ra,8000286c <sbi_tlb_entry_process>
    80002918:	fa840593          	addi	a1,s0,-88
    8000291c:	8526                	mv	a0,s1
    8000291e:	43e040ef          	jal	ra,80006d5c <sbi_fifo_dequeue>
    80002922:	87aa                	mv	a5,a0
    80002924:	fa840513          	addi	a0,s0,-88
    80002928:	d7f5                	beqz	a5,80002914 <sbi_tlb_process+0x16>
    8000292a:	60e6                	ld	ra,88(sp)
    8000292c:	6446                	ld	s0,80(sp)
    8000292e:	64a6                	ld	s1,72(sp)
    80002930:	6125                	addi	sp,sp,96
    80002932:	8082                	ret

0000000080002934 <sbi_tlb_update>:
    80002934:	7175                	addi	sp,sp,-144
    80002936:	e122                	sd	s0,128(sp)
    80002938:	f8ca                	sd	s2,112(sp)
    8000293a:	f4ce                	sd	s3,104(sp)
    8000293c:	ecd6                	sd	s5,88(sp)
    8000293e:	e8da                	sd	s6,80(sp)
    80002940:	e506                	sd	ra,136(sp)
    80002942:	fca6                	sd	s1,120(sp)
    80002944:	f0d2                	sd	s4,96(sp)
    80002946:	e4de                	sd	s7,72(sp)
    80002948:	e0e2                	sd	s8,64(sp)
    8000294a:	0900                	addi	s0,sp,144
    8000294c:	8b2a                	mv	s6,a0
    8000294e:	89ae                	mv	s3,a1
    80002950:	8ab2                	mv	s5,a2
    80002952:	8936                	mv	s2,a3
    80002954:	f1402a73          	csrr	s4,mhartid
    80002958:	6698                	ld	a4,8(a3)
    8000295a:	00010797          	auipc	a5,0x10
    8000295e:	6e67b783          	ld	a5,1766(a5) # 80013040 <fdt_nop_node+0x3ede>
    80002962:	2a01                	sext.w	s4,s4
    80002964:	00e7f663          	bgeu	a5,a4,80002970 <sbi_tlb_update+0x3c>
    80002968:	57fd                	li	a5,-1
    8000296a:	0006b023          	sd	zero,0(a3)
    8000296e:	e69c                	sd	a5,8(a3)
    80002970:	095a0c63          	beq	s4,s5,80002a08 <sbi_tlb_update+0xd4>
    80002974:	00010b97          	auipc	s7,0x10
    80002978:	6dcb8b93          	addi	s7,s7,1756 # 80013050 <fdt_nop_node+0x3eee>
    8000297c:	000bb783          	ld	a5,0(s7)
    80002980:	00000617          	auipc	a2,0x0
    80002984:	11060613          	addi	a2,a2,272 # 80002a90 <sbi_tlb_update_cb>
    80002988:	85ca                	mv	a1,s2
    8000298a:	99be                	add	s3,s3,a5
    8000298c:	854e                	mv	a0,s3
    8000298e:	2ae040ef          	jal	ra,80006c3c <sbi_fifo_inplace_update>
    80002992:	872a                	mv	a4,a0
    80002994:	4789                	li	a5,2
    80002996:	4505                	li	a0,1
    80002998:	0000ec17          	auipc	s8,0xe
    8000299c:	9e0c0c13          	addi	s8,s8,-1568 # 80010378 <fdt_nop_node+0x1216>
    800029a0:	04f70a63          	beq	a4,a5,800029f4 <sbi_tlb_update+0xc0>
    800029a4:	60aa                	ld	ra,136(sp)
    800029a6:	640a                	ld	s0,128(sp)
    800029a8:	74e6                	ld	s1,120(sp)
    800029aa:	7946                	ld	s2,112(sp)
    800029ac:	79a6                	ld	s3,104(sp)
    800029ae:	7a06                	ld	s4,96(sp)
    800029b0:	6ae6                	ld	s5,88(sp)
    800029b2:	6b46                	ld	s6,80(sp)
    800029b4:	6ba6                	ld	s7,72(sp)
    800029b6:	6c06                	ld	s8,64(sp)
    800029b8:	6149                	addi	sp,sp,144
    800029ba:	8082                	ret
    800029bc:	000bb483          	ld	s1,0(s7)
    800029c0:	94da                	add	s1,s1,s6
    800029c2:	8526                	mv	a0,s1
    800029c4:	398040ef          	jal	ra,80006d5c <sbi_fifo_dequeue>
    800029c8:	87aa                	mv	a5,a0
    800029ca:	f7840513          	addi	a0,s0,-136
    800029ce:	ef91                	bnez	a5,800029ea <sbi_tlb_update+0xb6>
    800029d0:	e9dff0ef          	jal	ra,8000286c <sbi_tlb_entry_process>
    800029d4:	f7840593          	addi	a1,s0,-136
    800029d8:	8526                	mv	a0,s1
    800029da:	382040ef          	jal	ra,80006d5c <sbi_fifo_dequeue>
    800029de:	87aa                	mv	a5,a0
    800029e0:	f7840513          	addi	a0,s0,-136
    800029e4:	e399                	bnez	a5,800029ea <sbi_tlb_update+0xb6>
    800029e6:	e87ff0ef          	jal	ra,8000286c <sbi_tlb_entry_process>
    800029ea:	8656                	mv	a2,s5
    800029ec:	85d2                	mv	a1,s4
    800029ee:	8562                	mv	a0,s8
    800029f0:	1c0030ef          	jal	ra,80005bb0 <sbi_dprintf>
    800029f4:	85ca                	mv	a1,s2
    800029f6:	854e                	mv	a0,s3
    800029f8:	2e0040ef          	jal	ra,80006cd8 <sbi_fifo_enqueue>
    800029fc:	f7840593          	addi	a1,s0,-136
    80002a00:	fa054ee3          	bltz	a0,800029bc <sbi_tlb_update+0x88>
    80002a04:	4501                	li	a0,0
    80002a06:	bf79                	j	800029a4 <sbi_tlb_update+0x70>
    80002a08:	854a                	mv	a0,s2
    80002a0a:	ca1ff0ef          	jal	ra,800026aa <sbi_tlb_local_flush>
    80002a0e:	557d                	li	a0,-1
    80002a10:	bf51                	j	800029a4 <sbi_tlb_update+0x70>

0000000080002a12 <sbi_tlb_sync>:
    80002a12:	7159                	addi	sp,sp,-112
    80002a14:	f0a2                	sd	s0,96(sp)
    80002a16:	e8ca                	sd	s2,80(sp)
    80002a18:	e4ce                	sd	s3,72(sp)
    80002a1a:	e0d2                	sd	s4,64(sp)
    80002a1c:	f486                	sd	ra,104(sp)
    80002a1e:	eca6                	sd	s1,88(sp)
    80002a20:	1880                	addi	s0,sp,112
    80002a22:	00010917          	auipc	s2,0x10
    80002a26:	63693903          	ld	s2,1590(s2) # 80013058 <fdt_nop_node+0x3ef6>
    80002a2a:	89aa                	mv	s3,a0
    80002a2c:	992a                	add	s2,s2,a0
    80002a2e:	00010a17          	auipc	s4,0x10
    80002a32:	622a0a13          	addi	s4,s4,1570 # 80013050 <fdt_nop_node+0x3eee>
    80002a36:	4581                	li	a1,0
    80002a38:	854a                	mv	a0,s2
    80002a3a:	05e020ef          	jal	ra,80004a98 <atomic_raw_xchg_ulong>
    80002a3e:	f9840593          	addi	a1,s0,-104
    80002a42:	ed1d                	bnez	a0,80002a80 <sbi_tlb_sync+0x6e>
    80002a44:	000a3483          	ld	s1,0(s4)
    80002a48:	94ce                	add	s1,s1,s3
    80002a4a:	8526                	mv	a0,s1
    80002a4c:	310040ef          	jal	ra,80006d5c <sbi_fifo_dequeue>
    80002a50:	87aa                	mv	a5,a0
    80002a52:	f9840513          	addi	a0,s0,-104
    80002a56:	f3e5                	bnez	a5,80002a36 <sbi_tlb_sync+0x24>
    80002a58:	e15ff0ef          	jal	ra,8000286c <sbi_tlb_entry_process>
    80002a5c:	f9840593          	addi	a1,s0,-104
    80002a60:	8526                	mv	a0,s1
    80002a62:	2fa040ef          	jal	ra,80006d5c <sbi_fifo_dequeue>
    80002a66:	87aa                	mv	a5,a0
    80002a68:	f9840513          	addi	a0,s0,-104
    80002a6c:	f7e9                	bnez	a5,80002a36 <sbi_tlb_sync+0x24>
    80002a6e:	dffff0ef          	jal	ra,8000286c <sbi_tlb_entry_process>
    80002a72:	4581                	li	a1,0
    80002a74:	854a                	mv	a0,s2
    80002a76:	022020ef          	jal	ra,80004a98 <atomic_raw_xchg_ulong>
    80002a7a:	f9840593          	addi	a1,s0,-104
    80002a7e:	d179                	beqz	a0,80002a44 <sbi_tlb_sync+0x32>
    80002a80:	70a6                	ld	ra,104(sp)
    80002a82:	7406                	ld	s0,96(sp)
    80002a84:	64e6                	ld	s1,88(sp)
    80002a86:	6946                	ld	s2,80(sp)
    80002a88:	69a6                	ld	s3,72(sp)
    80002a8a:	6a06                	ld	s4,64(sp)
    80002a8c:	6165                	addi	sp,sp,112
    80002a8e:	8082                	ret

0000000080002a90 <sbi_tlb_update_cb>:
    80002a90:	c929                	beqz	a0,80002ae2 <sbi_tlb_update_cb+0x52>
    80002a92:	c9a1                	beqz	a1,80002ae2 <sbi_tlb_update_cb+0x52>
    80002a94:	1141                	addi	sp,sp,-16
    80002a96:	e022                	sd	s0,0(sp)
    80002a98:	e406                	sd	ra,8(sp)
    80002a9a:	0800                	addi	s0,sp,16
    80002a9c:	711c                	ld	a5,32(a0)
    80002a9e:	4705                	li	a4,1
    80002aa0:	862a                	mv	a2,a0
    80002aa2:	02e78763          	beq	a5,a4,80002ad0 <sbi_tlb_update_cb+0x40>
    80002aa6:	efa9                	bnez	a5,80002b00 <sbi_tlb_update_cb+0x70>
    80002aa8:	719c                	ld	a5,32(a1)
    80002aaa:	4509                	li	a0,2
    80002aac:	ef91                	bnez	a5,80002ac8 <sbi_tlb_update_cb+0x38>
    80002aae:	6214                	ld	a3,0(a2)
    80002ab0:	6618                	ld	a4,8(a2)
    80002ab2:	0005b803          	ld	a6,0(a1)
    80002ab6:	659c                	ld	a5,8(a1)
    80002ab8:	9736                	add	a4,a4,a3
    80002aba:	97c2                	add	a5,a5,a6
    80002abc:	02d86563          	bltu	a6,a3,80002ae6 <sbi_tlb_update_cb+0x56>
    80002ac0:	04e7e263          	bltu	a5,a4,80002b04 <sbi_tlb_update_cb+0x74>
    80002ac4:	03068363          	beq	a3,a6,80002aea <sbi_tlb_update_cb+0x5a>
    80002ac8:	60a2                	ld	ra,8(sp)
    80002aca:	6402                	ld	s0,0(sp)
    80002acc:	0141                	addi	sp,sp,16
    80002ace:	8082                	ret
    80002ad0:	7198                	ld	a4,32(a1)
    80002ad2:	4509                	li	a0,2
    80002ad4:	fef71ae3          	bne	a4,a5,80002ac8 <sbi_tlb_update_cb+0x38>
    80002ad8:	6a18                	ld	a4,16(a2)
    80002ada:	699c                	ld	a5,16(a1)
    80002adc:	fef716e3          	bne	a4,a5,80002ac8 <sbi_tlb_update_cb+0x38>
    80002ae0:	b7f9                	j	80002aae <sbi_tlb_update_cb+0x1e>
    80002ae2:	4509                	li	a0,2
    80002ae4:	8082                	ret
    80002ae6:	fee7e1e3          	bltu	a5,a4,80002ac8 <sbi_tlb_update_cb+0x38>
    80002aea:	02858593          	addi	a1,a1,40
    80002aee:	852e                	mv	a0,a1
    80002af0:	08000693          	li	a3,128
    80002af4:	02860613          	addi	a2,a2,40
    80002af8:	134020ef          	jal	ra,80004c2c <__bitmap_or>
    80002afc:	4501                	li	a0,0
    80002afe:	b7e9                	j	80002ac8 <sbi_tlb_update_cb+0x38>
    80002b00:	4509                	li	a0,2
    80002b02:	b7d9                	j	80002ac8 <sbi_tlb_update_cb+0x38>
    80002b04:	e194                	sd	a3,0(a1)
    80002b06:	6618                	ld	a4,8(a2)
    80002b08:	02858793          	addi	a5,a1,40
    80002b0c:	853e                	mv	a0,a5
    80002b0e:	e598                	sd	a4,8(a1)
    80002b10:	08000693          	li	a3,128
    80002b14:	02860613          	addi	a2,a2,40
    80002b18:	85be                	mv	a1,a5
    80002b1a:	112020ef          	jal	ra,80004c2c <__bitmap_or>
    80002b1e:	4505                	li	a0,1
    80002b20:	b765                	j	80002ac8 <sbi_tlb_update_cb+0x38>

0000000080002b22 <sbi_tlb_request>:
    80002b22:	1141                	addi	sp,sp,-16
    80002b24:	e022                	sd	s0,0(sp)
    80002b26:	e406                	sd	ra,8(sp)
    80002b28:	0800                	addi	s0,sp,16
    80002b2a:	86b2                	mv	a3,a2
    80002b2c:	0000f617          	auipc	a2,0xf
    80002b30:	4e862603          	lw	a2,1256(a2) # 80012014 <fdt_nop_node+0x2eb2>
    80002b34:	a2dfe0ef          	jal	ra,80001560 <sbi_ipi_send_many>
    80002b38:	60a2                	ld	ra,8(sp)
    80002b3a:	6402                	ld	s0,0(sp)
    80002b3c:	0141                	addi	sp,sp,16
    80002b3e:	8082                	ret

0000000080002b40 <sbi_tlb_init>:
    80002b40:	7139                	addi	sp,sp,-64
    80002b42:	f822                	sd	s0,48(sp)
    80002b44:	f426                	sd	s1,40(sp)
    80002b46:	fc06                	sd	ra,56(sp)
    80002b48:	f04a                	sd	s2,32(sp)
    80002b4a:	ec4e                	sd	s3,24(sp)
    80002b4c:	e852                	sd	s4,16(sp)
    80002b4e:	e456                	sd	s5,8(sp)
    80002b50:	e05a                	sd	s6,0(sp)
    80002b52:	0080                	addi	s0,sp,64
    80002b54:	84aa                	mv	s1,a0
    80002b56:	e1ad                	bnez	a1,80002bb8 <sbi_tlb_init+0x78>
    80002b58:	00010797          	auipc	a5,0x10
    80002b5c:	5007b783          	ld	a5,1280(a5) # 80013058 <fdt_nop_node+0x3ef6>
    80002b60:	1c078763          	beqz	a5,80002d2e <sbi_tlb_init+0x1ee>
    80002b64:	00010517          	auipc	a0,0x10
    80002b68:	4ec53503          	ld	a0,1260(a0) # 80013050 <fdt_nop_node+0x3eee>
    80002b6c:	1c050163          	beqz	a0,80002d2e <sbi_tlb_init+0x1ee>
    80002b70:	00010597          	auipc	a1,0x10
    80002b74:	4d85b583          	ld	a1,1240(a1) # 80013048 <fdt_nop_node+0x3ee6>
    80002b78:	1a058b63          	beqz	a1,80002d2e <sbi_tlb_init+0x1ee>
    80002b7c:	0000f697          	auipc	a3,0xf
    80002b80:	4986a683          	lw	a3,1176(a3) # 80012014 <fdt_nop_node+0x2eb2>
    80002b84:	03f00713          	li	a4,63
    80002b88:	1ad76663          	bltu	a4,a3,80002d34 <sbi_tlb_init+0x1f4>
    80002b8c:	97a6                	add	a5,a5,s1
    80002b8e:	0007b023          	sd	zero,0(a5)
    80002b92:	03800693          	li	a3,56
    80002b96:	4621                	li	a2,8
    80002b98:	95a6                	add	a1,a1,s1
    80002b9a:	9526                	add	a0,a0,s1
    80002b9c:	77f030ef          	jal	ra,80006b1a <sbi_fifo_init>
    80002ba0:	4901                	li	s2,0
    80002ba2:	70e2                	ld	ra,56(sp)
    80002ba4:	7442                	ld	s0,48(sp)
    80002ba6:	74a2                	ld	s1,40(sp)
    80002ba8:	69e2                	ld	s3,24(sp)
    80002baa:	6a42                	ld	s4,16(sp)
    80002bac:	6aa2                	ld	s5,8(sp)
    80002bae:	6b02                	ld	s6,0(sp)
    80002bb0:	854a                	mv	a0,s2
    80002bb2:	7902                	ld	s2,32(sp)
    80002bb4:	6121                	addi	sp,sp,64
    80002bb6:	8082                	ret
    80002bb8:	03154583          	lbu	a1,49(a0)
    80002bbc:	03054783          	lbu	a5,48(a0)
    80002bc0:	03254603          	lbu	a2,50(a0)
    80002bc4:	03354683          	lbu	a3,51(a0)
    80002bc8:	03454703          	lbu	a4,52(a0)
    80002bcc:	05a2                	slli	a1,a1,0x8
    80002bce:	03554983          	lbu	s3,53(a0)
    80002bd2:	8ddd                	or	a1,a1,a5
    80002bd4:	0642                	slli	a2,a2,0x10
    80002bd6:	03654783          	lbu	a5,54(a0)
    80002bda:	8e4d                	or	a2,a2,a1
    80002bdc:	06e2                	slli	a3,a3,0x18
    80002bde:	03754583          	lbu	a1,55(a0)
    80002be2:	8ed1                	or	a3,a3,a2
    80002be4:	1702                	slli	a4,a4,0x20
    80002be6:	8f55                	or	a4,a4,a3
    80002be8:	19a2                	slli	s3,s3,0x28
    80002bea:	00e9e9b3          	or	s3,s3,a4
    80002bee:	17c2                	slli	a5,a5,0x30
    80002bf0:	0137e7b3          	or	a5,a5,s3
    80002bf4:	4521                	li	a0,8
    80002bf6:	03859993          	slli	s3,a1,0x38
    80002bfa:	0000d597          	auipc	a1,0xd
    80002bfe:	79e58593          	addi	a1,a1,1950 # 80010398 <fdt_nop_node+0x1236>
    80002c02:	00f9e9b3          	or	s3,s3,a5
    80002c06:	00010a17          	auipc	s4,0x10
    80002c0a:	452a0a13          	addi	s4,s4,1106 # 80013058 <fdt_nop_node+0x3ef6>
    80002c0e:	970ff0ef          	jal	ra,80001d7e <sbi_scratch_alloc_offset>
    80002c12:	00aa3023          	sd	a0,0(s4)
    80002c16:	10050c63          	beqz	a0,80002d2e <sbi_tlb_init+0x1ee>
    80002c1a:	0000d597          	auipc	a1,0xd
    80002c1e:	78e58593          	addi	a1,a1,1934 # 800103a8 <fdt_nop_node+0x1246>
    80002c22:	4561                	li	a0,24
    80002c24:	95aff0ef          	jal	ra,80001d7e <sbi_scratch_alloc_offset>
    80002c28:	00010a97          	auipc	s5,0x10
    80002c2c:	428a8a93          	addi	s5,s5,1064 # 80013050 <fdt_nop_node+0x3eee>
    80002c30:	00aab023          	sd	a0,0(s5)
    80002c34:	10050363          	beqz	a0,80002d3a <sbi_tlb_init+0x1fa>
    80002c38:	0000d597          	auipc	a1,0xd
    80002c3c:	78058593          	addi	a1,a1,1920 # 800103b8 <fdt_nop_node+0x1256>
    80002c40:	1c000513          	li	a0,448
    80002c44:	93aff0ef          	jal	ra,80001d7e <sbi_scratch_alloc_offset>
    80002c48:	00010b17          	auipc	s6,0x10
    80002c4c:	400b0b13          	addi	s6,s6,1024 # 80013048 <fdt_nop_node+0x3ee6>
    80002c50:	00ab3023          	sd	a0,0(s6)
    80002c54:	0e050a63          	beqz	a0,80002d48 <sbi_tlb_init+0x208>
    80002c58:	0000f517          	auipc	a0,0xf
    80002c5c:	45850513          	addi	a0,a0,1112 # 800120b0 <fdt_nop_node+0x2f4e>
    80002c60:	9cffe0ef          	jal	ra,8000162e <sbi_ipi_event_create>
    80002c64:	892a                	mv	s2,a0
    80002c66:	0a054563          	bltz	a0,80002d10 <sbi_tlb_init+0x1d0>
    80002c6a:	0000f797          	auipc	a5,0xf
    80002c6e:	3aa7a523          	sw	a0,938(a5) # 80012014 <fdt_nop_node+0x2eb2>
    80002c72:	0a098c63          	beqz	s3,80002d2a <sbi_tlb_init+0x1ea>
    80002c76:	0599c783          	lbu	a5,89(s3)
    80002c7a:	0589c703          	lbu	a4,88(s3)
    80002c7e:	05a9c503          	lbu	a0,90(s3)
    80002c82:	05b9c583          	lbu	a1,91(s3)
    80002c86:	05c9c603          	lbu	a2,92(s3)
    80002c8a:	07a2                	slli	a5,a5,0x8
    80002c8c:	8fd9                	or	a5,a5,a4
    80002c8e:	05d9c683          	lbu	a3,93(s3)
    80002c92:	0542                	slli	a0,a0,0x10
    80002c94:	8d5d                	or	a0,a0,a5
    80002c96:	05e9c703          	lbu	a4,94(s3)
    80002c9a:	05e2                	slli	a1,a1,0x18
    80002c9c:	8dc9                	or	a1,a1,a0
    80002c9e:	05f9c783          	lbu	a5,95(s3)
    80002ca2:	1602                	slli	a2,a2,0x20
    80002ca4:	8e4d                	or	a2,a2,a1
    80002ca6:	16a2                	slli	a3,a3,0x28
    80002ca8:	8ed1                	or	a3,a3,a2
    80002caa:	1742                	slli	a4,a4,0x30
    80002cac:	8f55                	or	a4,a4,a3
    80002cae:	17e2                	slli	a5,a5,0x38
    80002cb0:	8fd9                	or	a5,a5,a4
    80002cb2:	0897c803          	lbu	a6,137(a5)
    80002cb6:	0887c703          	lbu	a4,136(a5)
    80002cba:	08a7c503          	lbu	a0,138(a5)
    80002cbe:	08b7c583          	lbu	a1,139(a5)
    80002cc2:	08c7c603          	lbu	a2,140(a5)
    80002cc6:	0822                	slli	a6,a6,0x8
    80002cc8:	08d7c683          	lbu	a3,141(a5)
    80002ccc:	00e86833          	or	a6,a6,a4
    80002cd0:	0542                	slli	a0,a0,0x10
    80002cd2:	08e7c703          	lbu	a4,142(a5)
    80002cd6:	01056533          	or	a0,a0,a6
    80002cda:	05e2                	slli	a1,a1,0x18
    80002cdc:	08f7c783          	lbu	a5,143(a5)
    80002ce0:	8dc9                	or	a1,a1,a0
    80002ce2:	1602                	slli	a2,a2,0x20
    80002ce4:	8e4d                	or	a2,a2,a1
    80002ce6:	16a2                	slli	a3,a3,0x28
    80002ce8:	8ed1                	or	a3,a3,a2
    80002cea:	1742                	slli	a4,a4,0x30
    80002cec:	8f55                	or	a4,a4,a3
    80002cee:	17e2                	slli	a5,a5,0x38
    80002cf0:	8fd9                	or	a5,a5,a4
    80002cf2:	6705                	lui	a4,0x1
    80002cf4:	c399                	beqz	a5,80002cfa <sbi_tlb_init+0x1ba>
    80002cf6:	9782                	jalr	a5
    80002cf8:	872a                	mv	a4,a0
    80002cfa:	000a3783          	ld	a5,0(s4)
    80002cfe:	000ab503          	ld	a0,0(s5)
    80002d02:	000b3583          	ld	a1,0(s6)
    80002d06:	00010697          	auipc	a3,0x10
    80002d0a:	32e6bd23          	sd	a4,826(a3) # 80013040 <fdt_nop_node+0x3ede>
    80002d0e:	bdbd                	j	80002b8c <sbi_tlb_init+0x4c>
    80002d10:	000b3503          	ld	a0,0(s6)
    80002d14:	916ff0ef          	jal	ra,80001e2a <sbi_scratch_free_offset>
    80002d18:	000ab503          	ld	a0,0(s5)
    80002d1c:	90eff0ef          	jal	ra,80001e2a <sbi_scratch_free_offset>
    80002d20:	000a3503          	ld	a0,0(s4)
    80002d24:	906ff0ef          	jal	ra,80001e2a <sbi_scratch_free_offset>
    80002d28:	bdad                	j	80002ba2 <sbi_tlb_init+0x62>
    80002d2a:	6705                	lui	a4,0x1
    80002d2c:	b7f9                	j	80002cfa <sbi_tlb_init+0x1ba>
    80002d2e:	c1200913          	li	s2,-1006
    80002d32:	bd85                	j	80002ba2 <sbi_tlb_init+0x62>
    80002d34:	c1300913          	li	s2,-1005
    80002d38:	b5ad                	j	80002ba2 <sbi_tlb_init+0x62>
    80002d3a:	000a3503          	ld	a0,0(s4)
    80002d3e:	c1200913          	li	s2,-1006
    80002d42:	8e8ff0ef          	jal	ra,80001e2a <sbi_scratch_free_offset>
    80002d46:	bdb1                	j	80002ba2 <sbi_tlb_init+0x62>
    80002d48:	000ab503          	ld	a0,0(s5)
    80002d4c:	c1200913          	li	s2,-1006
    80002d50:	8daff0ef          	jal	ra,80001e2a <sbi_scratch_free_offset>
    80002d54:	000a3503          	ld	a0,0(s4)
    80002d58:	8d2ff0ef          	jal	ra,80001e2a <sbi_scratch_free_offset>
    80002d5c:	b599                	j	80002ba2 <sbi_tlb_init+0x62>

0000000080002d5e <sbi_trap_redirect>:
    80002d5e:	7179                	addi	sp,sp,-48
    80002d60:	f022                	sd	s0,32(sp)
    80002d62:	ec26                	sd	s1,24(sp)
    80002d64:	e44e                	sd	s3,8(sp)
    80002d66:	f406                	sd	ra,40(sp)
    80002d68:	e84a                	sd	s2,16(sp)
    80002d6a:	e052                	sd	s4,0(sp)
    80002d6c:	1800                	addi	s0,sp,48
    80002d6e:	10954783          	lbu	a5,265(a0)
    80002d72:	10854703          	lbu	a4,264(a0)
    80002d76:	10a54803          	lbu	a6,266(a0)
    80002d7a:	84aa                	mv	s1,a0
    80002d7c:	10b54503          	lbu	a0,267(a0)
    80002d80:	10c4c603          	lbu	a2,268(s1)
    80002d84:	07a2                	slli	a5,a5,0x8
    80002d86:	8fd9                	or	a5,a5,a4
    80002d88:	10d4c683          	lbu	a3,269(s1)
    80002d8c:	0842                	slli	a6,a6,0x10
    80002d8e:	00f86833          	or	a6,a6,a5
    80002d92:	10e4c703          	lbu	a4,270(s1)
    80002d96:	0562                	slli	a0,a0,0x18
    80002d98:	10f4c783          	lbu	a5,271(s1)
    80002d9c:	01056533          	or	a0,a0,a6
    80002da0:	1602                	slli	a2,a2,0x20
    80002da2:	8e49                	or	a2,a2,a0
    80002da4:	16a2                	slli	a3,a3,0x28
    80002da6:	8ed1                	or	a3,a3,a2
    80002da8:	1742                	slli	a4,a4,0x30
    80002daa:	8f55                	or	a4,a4,a3
    80002dac:	17e2                	slli	a5,a5,0x38
    80002dae:	8fd9                	or	a5,a5,a4
    80002db0:	00b7d993          	srli	s3,a5,0xb
    80002db4:	0029f713          	andi	a4,s3,2
    80002db8:	42071563          	bnez	a4,800031e2 <sbi_trap_redirect+0x484>
    80002dbc:	939d                	srli	a5,a5,0x27
    80002dbe:	04800513          	li	a0,72
    80002dc2:	8a2e                	mv	s4,a1
    80002dc4:	0017f913          	andi	s2,a5,1
    80002dc8:	4a8010ef          	jal	ra,80004270 <misa_extension_imp>
    80002dcc:	1094c703          	lbu	a4,265(s1)
    80002dd0:	1084c683          	lbu	a3,264(s1)
    80002dd4:	0039f993          	andi	s3,s3,3
    80002dd8:	1c050763          	beqz	a0,80002fa6 <sbi_trap_redirect+0x248>
    80002ddc:	10a4c503          	lbu	a0,266(s1)
    80002de0:	10b4c583          	lbu	a1,267(s1)
    80002de4:	10c4c603          	lbu	a2,268(s1)
    80002de8:	0722                	slli	a4,a4,0x8
    80002dea:	8f55                	or	a4,a4,a3
    80002dec:	10d4c783          	lbu	a5,269(s1)
    80002df0:	0542                	slli	a0,a0,0x10
    80002df2:	8d59                	or	a0,a0,a4
    80002df4:	10e4c683          	lbu	a3,270(s1)
    80002df8:	05e2                	slli	a1,a1,0x18
    80002dfa:	8dc9                	or	a1,a1,a0
    80002dfc:	1602                	slli	a2,a2,0x20
    80002dfe:	10f4c703          	lbu	a4,271(s1)
    80002e02:	8e4d                	or	a2,a2,a1
    80002e04:	17a2                	slli	a5,a5,0x28
    80002e06:	8fd1                	or	a5,a5,a2
    80002e08:	16c2                	slli	a3,a3,0x30
    80002e0a:	8edd                	or	a3,a3,a5
    80002e0c:	57fd                	li	a5,-1
    80002e0e:	1762                	slli	a4,a4,0x38
    80002e10:	179e                	slli	a5,a5,0x27
    80002e12:	8f55                	or	a4,a4,a3
    80002e14:	17fd                	addi	a5,a5,-1
    80002e16:	8ff9                	and	a5,a5,a4
    80002e18:	36090f63          	beqz	s2,80003196 <sbi_trap_redirect+0x438>
    80002e1c:	008a3703          	ld	a4,8(s4)
    80002e20:	46b5                	li	a3,13
    80002e22:	20e6e663          	bltu	a3,a4,8000302e <sbi_trap_redirect+0x2d0>
    80002e26:	46ad                	li	a3,11
    80002e28:	20e6e663          	bltu	a3,a4,80003034 <sbi_trap_redirect+0x2d6>
    80002e2c:	0187d51b          	srliw	a0,a5,0x18
    80002e30:	0087d893          	srli	a7,a5,0x8
    80002e34:	0107d813          	srli	a6,a5,0x10
    80002e38:	0207d593          	srli	a1,a5,0x20
    80002e3c:	0287d613          	srli	a2,a5,0x28
    80002e40:	0307d693          	srli	a3,a5,0x30
    80002e44:	0387d713          	srli	a4,a5,0x38
    80002e48:	10a485a3          	sb	a0,267(s1)
    80002e4c:	10f48423          	sb	a5,264(s1)
    80002e50:	111484a3          	sb	a7,265(s1)
    80002e54:	11048523          	sb	a6,266(s1)
    80002e58:	10b48623          	sb	a1,268(s1)
    80002e5c:	10c486a3          	sb	a2,269(s1)
    80002e60:	10d48723          	sb	a3,270(s1)
    80002e64:	10e487a3          	sb	a4,271(s1)
    80002e68:	04800513          	li	a0,72
    80002e6c:	404010ef          	jal	ra,80004270 <misa_extension_imp>
    80002e70:	c51d                	beqz	a0,80002e9e <sbi_trap_redirect+0x140>
    80002e72:	600027f3          	csrr	a5,0x600
    80002e76:	1094c703          	lbu	a4,265(s1)
    80002e7a:	e7f7f793          	andi	a5,a5,-385
    80002e7e:	0722                	slli	a4,a4,0x8
    80002e80:	10077713          	andi	a4,a4,256
    80002e84:	8fd9                	or	a5,a5,a4
    80002e86:	0807e793          	ori	a5,a5,128
    80002e8a:	60079073          	csrw	0x600,a5
    80002e8e:	018a3783          	ld	a5,24(s4)
    80002e92:	64379073          	csrw	0x643,a5
    80002e96:	020a3783          	ld	a5,32(s4)
    80002e9a:	64a79073          	csrw	0x64a,a5
    80002e9e:	010a3783          	ld	a5,16(s4)
    80002ea2:	14379073          	csrw	stval,a5
    80002ea6:	000a3783          	ld	a5,0(s4)
    80002eaa:	14179073          	csrw	sepc,a5
    80002eae:	008a3783          	ld	a5,8(s4)
    80002eb2:	14279073          	csrw	scause,a5
    80002eb6:	10502873          	csrr	a6,stvec
    80002eba:	1094c783          	lbu	a5,265(s1)
    80002ebe:	1084c703          	lbu	a4,264(s1)
    80002ec2:	10a4c503          	lbu	a0,266(s1)
    80002ec6:	10b4c583          	lbu	a1,267(s1)
    80002eca:	10c4c603          	lbu	a2,268(s1)
    80002ece:	07a2                	slli	a5,a5,0x8
    80002ed0:	8fd9                	or	a5,a5,a4
    80002ed2:	10d4c683          	lbu	a3,269(s1)
    80002ed6:	0542                	slli	a0,a0,0x10
    80002ed8:	8d5d                	or	a0,a0,a5
    80002eda:	10e4c703          	lbu	a4,270(s1)
    80002ede:	05e2                	slli	a1,a1,0x18
    80002ee0:	8dc9                	or	a1,a1,a0
    80002ee2:	10f4c783          	lbu	a5,271(s1)
    80002ee6:	1602                	slli	a2,a2,0x20
    80002ee8:	8e4d                	or	a2,a2,a1
    80002eea:	16a2                	slli	a3,a3,0x28
    80002eec:	8ed1                	or	a3,a3,a2
    80002eee:	1742                	slli	a4,a4,0x30
    80002ef0:	8f55                	or	a4,a4,a3
    80002ef2:	17e2                	slli	a5,a5,0x38
    80002ef4:	8fd9                	or	a5,a5,a4
    80002ef6:	00885e93          	srli	t4,a6,0x8
    80002efa:	01085e13          	srli	t3,a6,0x10
    80002efe:	0188531b          	srliw	t1,a6,0x18
    80002f02:	02085893          	srli	a7,a6,0x20
    80002f06:	02885513          	srli	a0,a6,0x28
    80002f0a:	03085593          	srli	a1,a6,0x30
    80002f0e:	03885613          	srli	a2,a6,0x38
    80002f12:	7779                	lui	a4,0xffffe
    80002f14:	6ff70713          	addi	a4,a4,1791 # ffffffffffffe6ff <fdt_nop_node+0xffffffff7ffef59d>
    80002f18:	11048023          	sb	a6,256(s1)
    80002f1c:	11d480a3          	sb	t4,257(s1)
    80002f20:	11c48123          	sb	t3,258(s1)
    80002f24:	106481a3          	sb	t1,259(s1)
    80002f28:	11148223          	sb	a7,260(s1)
    80002f2c:	10a482a3          	sb	a0,261(s1)
    80002f30:	10b48323          	sb	a1,262(s1)
    80002f34:	10c483a3          	sb	a2,263(s1)
    80002f38:	4685                	li	a3,1
    80002f3a:	8ff9                	and	a5,a5,a4
    80002f3c:	6705                	lui	a4,0x1
    80002f3e:	28d98e63          	beq	s3,a3,800031da <sbi_trap_redirect+0x47c>
    80002f42:	80070713          	addi	a4,a4,-2048 # 800 <_fw_start-0x7ffff800>
    80002f46:	8fd9                	or	a5,a5,a4
    80002f48:	0027f713          	andi	a4,a5,2
    80002f4c:	fdf7f793          	andi	a5,a5,-33
    80002f50:	c319                	beqz	a4,80002f56 <sbi_trap_redirect+0x1f8>
    80002f52:	0207e793          	ori	a5,a5,32
    80002f56:	0107d513          	srli	a0,a5,0x10
    80002f5a:	0fd7f893          	andi	a7,a5,253
    80002f5e:	0087d813          	srli	a6,a5,0x8
    80002f62:	0187d59b          	srliw	a1,a5,0x18
    80002f66:	0207d613          	srli	a2,a5,0x20
    80002f6a:	0287d693          	srli	a3,a5,0x28
    80002f6e:	0307d713          	srli	a4,a5,0x30
    80002f72:	93e1                	srli	a5,a5,0x38
    80002f74:	10a48523          	sb	a0,266(s1)
    80002f78:	11148423          	sb	a7,264(s1)
    80002f7c:	110484a3          	sb	a6,265(s1)
    80002f80:	10b485a3          	sb	a1,267(s1)
    80002f84:	10c48623          	sb	a2,268(s1)
    80002f88:	10d486a3          	sb	a3,269(s1)
    80002f8c:	10e48723          	sb	a4,270(s1)
    80002f90:	10f487a3          	sb	a5,271(s1)
    80002f94:	4501                	li	a0,0
    80002f96:	70a2                	ld	ra,40(sp)
    80002f98:	7402                	ld	s0,32(sp)
    80002f9a:	64e2                	ld	s1,24(sp)
    80002f9c:	6942                	ld	s2,16(sp)
    80002f9e:	69a2                	ld	s3,8(sp)
    80002fa0:	6a02                	ld	s4,0(sp)
    80002fa2:	6145                	addi	sp,sp,48
    80002fa4:	8082                	ret
    80002fa6:	10a4c503          	lbu	a0,266(s1)
    80002faa:	10b4c583          	lbu	a1,267(s1)
    80002fae:	10c4c603          	lbu	a2,268(s1)
    80002fb2:	0722                	slli	a4,a4,0x8
    80002fb4:	8f55                	or	a4,a4,a3
    80002fb6:	10d4c783          	lbu	a5,269(s1)
    80002fba:	0542                	slli	a0,a0,0x10
    80002fbc:	8d59                	or	a0,a0,a4
    80002fbe:	10e4c683          	lbu	a3,270(s1)
    80002fc2:	05e2                	slli	a1,a1,0x18
    80002fc4:	8dc9                	or	a1,a1,a0
    80002fc6:	1602                	slli	a2,a2,0x20
    80002fc8:	8e4d                	or	a2,a2,a1
    80002fca:	10f4c703          	lbu	a4,271(s1)
    80002fce:	17a2                	slli	a5,a5,0x28
    80002fd0:	8fd1                	or	a5,a5,a2
    80002fd2:	16c2                	slli	a3,a3,0x30
    80002fd4:	8edd                	or	a3,a3,a5
    80002fd6:	57fd                	li	a5,-1
    80002fd8:	1762                	slli	a4,a4,0x38
    80002fda:	179e                	slli	a5,a5,0x27
    80002fdc:	8f55                	or	a4,a4,a3
    80002fde:	17fd                	addi	a5,a5,-1
    80002fe0:	8ff9                	and	a5,a5,a4
    80002fe2:	0187d51b          	srliw	a0,a5,0x18
    80002fe6:	0087d893          	srli	a7,a5,0x8
    80002fea:	0107d813          	srli	a6,a5,0x10
    80002fee:	0207d593          	srli	a1,a5,0x20
    80002ff2:	0287d613          	srli	a2,a5,0x28
    80002ff6:	0307d693          	srli	a3,a5,0x30
    80002ffa:	93e1                	srli	a5,a5,0x38
    80002ffc:	10a485a3          	sb	a0,267(s1)
    80003000:	10e48423          	sb	a4,264(s1)
    80003004:	111484a3          	sb	a7,265(s1)
    80003008:	11048523          	sb	a6,266(s1)
    8000300c:	10b48623          	sb	a1,268(s1)
    80003010:	10c486a3          	sb	a2,269(s1)
    80003014:	10d48723          	sb	a3,270(s1)
    80003018:	10f487a3          	sb	a5,271(s1)
    8000301c:	04800513          	li	a0,72
    80003020:	250010ef          	jal	ra,80004270 <misa_extension_imp>
    80003024:	e6050de3          	beqz	a0,80002e9e <sbi_trap_redirect+0x140>
    80003028:	e6090be3          	beqz	s2,80002e9e <sbi_trap_redirect+0x140>
    8000302c:	b599                	j	80002e72 <sbi_trap_redirect+0x114>
    8000302e:	46bd                	li	a3,15
    80003030:	ded71ee3          	bne	a4,a3,80002e2c <sbi_trap_redirect+0xce>
    80003034:	4905                	li	s2,1
    80003036:	02791713          	slli	a4,s2,0x27
    8000303a:	8f5d                	or	a4,a4,a5
    8000303c:	00875893          	srli	a7,a4,0x8
    80003040:	01075813          	srli	a6,a4,0x10
    80003044:	02075593          	srli	a1,a4,0x20
    80003048:	02875613          	srli	a2,a4,0x28
    8000304c:	03075693          	srli	a3,a4,0x30
    80003050:	0187551b          	srliw	a0,a4,0x18
    80003054:	9361                	srli	a4,a4,0x38
    80003056:	10f48423          	sb	a5,264(s1)
    8000305a:	10a485a3          	sb	a0,267(s1)
    8000305e:	111484a3          	sb	a7,265(s1)
    80003062:	11048523          	sb	a6,266(s1)
    80003066:	10b48623          	sb	a1,268(s1)
    8000306a:	10c486a3          	sb	a2,269(s1)
    8000306e:	10d48723          	sb	a3,270(s1)
    80003072:	10e487a3          	sb	a4,271(s1)
    80003076:	04800513          	li	a0,72
    8000307a:	1f6010ef          	jal	ra,80004270 <misa_extension_imp>
    8000307e:	010a3783          	ld	a5,16(s4)
    80003082:	24379073          	csrw	0x243,a5
    80003086:	000a3783          	ld	a5,0(s4)
    8000308a:	24179073          	csrw	0x241,a5
    8000308e:	008a3783          	ld	a5,8(s4)
    80003092:	24279073          	csrw	0x242,a5
    80003096:	205026f3          	csrr	a3,0x205
    8000309a:	1094c703          	lbu	a4,265(s1)
    8000309e:	1084c783          	lbu	a5,264(s1)
    800030a2:	10a4c803          	lbu	a6,266(s1)
    800030a6:	10b4c503          	lbu	a0,267(s1)
    800030aa:	10c4c583          	lbu	a1,268(s1)
    800030ae:	0722                	slli	a4,a4,0x8
    800030b0:	10d4c603          	lbu	a2,269(s1)
    800030b4:	8f5d                	or	a4,a4,a5
    800030b6:	0842                	slli	a6,a6,0x10
    800030b8:	10e4c783          	lbu	a5,270(s1)
    800030bc:	00e86833          	or	a6,a6,a4
    800030c0:	0562                	slli	a0,a0,0x18
    800030c2:	10f4c703          	lbu	a4,271(s1)
    800030c6:	01056533          	or	a0,a0,a6
    800030ca:	1582                	slli	a1,a1,0x20
    800030cc:	8dc9                	or	a1,a1,a0
    800030ce:	1622                	slli	a2,a2,0x28
    800030d0:	8e4d                	or	a2,a2,a1
    800030d2:	17c2                	slli	a5,a5,0x30
    800030d4:	8fd1                	or	a5,a5,a2
    800030d6:	1762                	slli	a4,a4,0x38
    800030d8:	8f5d                	or	a4,a4,a5
    800030da:	77f9                	lui	a5,0xffffe
    800030dc:	7ff78793          	addi	a5,a5,2047 # ffffffffffffe7ff <fdt_nop_node+0xffffffff7ffef69d>
    800030e0:	8f7d                	and	a4,a4,a5
    800030e2:	6785                	lui	a5,0x1
    800030e4:	80078793          	addi	a5,a5,-2048 # 800 <_fw_start-0x7ffff800>
    800030e8:	8fd9                	or	a5,a5,a4
    800030ea:	0087d313          	srli	t1,a5,0x8
    800030ee:	0107d893          	srli	a7,a5,0x10
    800030f2:	0187d81b          	srliw	a6,a5,0x18
    800030f6:	0207d513          	srli	a0,a5,0x20
    800030fa:	0287d593          	srli	a1,a5,0x28
    800030fe:	0307d613          	srli	a2,a5,0x30
    80003102:	0086da13          	srli	s4,a3,0x8
    80003106:	0106d393          	srli	t2,a3,0x10
    8000310a:	0186d29b          	srliw	t0,a3,0x18
    8000310e:	0206df93          	srli	t6,a3,0x20
    80003112:	0286df13          	srli	t5,a3,0x28
    80003116:	0306de93          	srli	t4,a3,0x30
    8000311a:	0386de13          	srli	t3,a3,0x38
    8000311e:	93e1                	srli	a5,a5,0x38
    80003120:	10d48023          	sb	a3,256(s1)
    80003124:	114480a3          	sb	s4,257(s1)
    80003128:	10748123          	sb	t2,258(s1)
    8000312c:	105481a3          	sb	t0,259(s1)
    80003130:	11f48223          	sb	t6,260(s1)
    80003134:	11e482a3          	sb	t5,261(s1)
    80003138:	11d48323          	sb	t4,262(s1)
    8000313c:	11c483a3          	sb	t3,263(s1)
    80003140:	10e48423          	sb	a4,264(s1)
    80003144:	106484a3          	sb	t1,265(s1)
    80003148:	11148523          	sb	a7,266(s1)
    8000314c:	110485a3          	sb	a6,267(s1)
    80003150:	10a48623          	sb	a0,268(s1)
    80003154:	10b486a3          	sb	a1,269(s1)
    80003158:	10c48723          	sb	a2,270(s1)
    8000315c:	10f487a3          	sb	a5,271(s1)
    80003160:	200027f3          	csrr	a5,0x200
    80003164:	eff7f793          	andi	a5,a5,-257
    80003168:	01299463          	bne	s3,s2,80003170 <sbi_trap_redirect+0x412>
    8000316c:	1007e793          	ori	a5,a5,256
    80003170:	0027f713          	andi	a4,a5,2
    80003174:	fdf7f793          	andi	a5,a5,-33
    80003178:	c319                	beqz	a4,8000317e <sbi_trap_redirect+0x420>
    8000317a:	0207e793          	ori	a5,a5,32
    8000317e:	9bf5                	andi	a5,a5,-3
    80003180:	20079073          	csrw	0x200,a5
    80003184:	70a2                	ld	ra,40(sp)
    80003186:	7402                	ld	s0,32(sp)
    80003188:	64e2                	ld	s1,24(sp)
    8000318a:	6942                	ld	s2,16(sp)
    8000318c:	69a2                	ld	s3,8(sp)
    8000318e:	6a02                	ld	s4,0(sp)
    80003190:	4501                	li	a0,0
    80003192:	6145                	addi	sp,sp,48
    80003194:	8082                	ret
    80003196:	0087d893          	srli	a7,a5,0x8
    8000319a:	0107d813          	srli	a6,a5,0x10
    8000319e:	0187d51b          	srliw	a0,a5,0x18
    800031a2:	0207d593          	srli	a1,a5,0x20
    800031a6:	0287d613          	srli	a2,a5,0x28
    800031aa:	0307d693          	srli	a3,a5,0x30
    800031ae:	93e1                	srli	a5,a5,0x38
    800031b0:	10a485a3          	sb	a0,267(s1)
    800031b4:	10e48423          	sb	a4,264(s1)
    800031b8:	111484a3          	sb	a7,265(s1)
    800031bc:	11048523          	sb	a6,266(s1)
    800031c0:	10b48623          	sb	a1,268(s1)
    800031c4:	10c486a3          	sb	a2,269(s1)
    800031c8:	10d48723          	sb	a3,270(s1)
    800031cc:	10f487a3          	sb	a5,271(s1)
    800031d0:	04800513          	li	a0,72
    800031d4:	09c010ef          	jal	ra,80004270 <misa_extension_imp>
    800031d8:	b1d9                	j	80002e9e <sbi_trap_redirect+0x140>
    800031da:	90070713          	addi	a4,a4,-1792
    800031de:	8fd9                	or	a5,a5,a4
    800031e0:	b3a5                	j	80002f48 <sbi_trap_redirect+0x1ea>
    800031e2:	5579                	li	a0,-2
    800031e4:	bb4d                	j	80002f96 <sbi_trap_redirect+0x238>

00000000800031e6 <sbi_trap_handler>:
    800031e6:	7159                	addi	sp,sp,-112
    800031e8:	f0a2                	sd	s0,96(sp)
    800031ea:	e8ca                	sd	s2,80(sp)
    800031ec:	f486                	sd	ra,104(sp)
    800031ee:	eca6                	sd	s1,88(sp)
    800031f0:	e4ce                	sd	s3,72(sp)
    800031f2:	e0d2                	sd	s4,64(sp)
    800031f4:	fc56                	sd	s5,56(sp)
    800031f6:	f85a                	sd	s6,48(sp)
    800031f8:	1880                	addi	s0,sp,112
    800031fa:	892a                	mv	s2,a0
    800031fc:	342024f3          	csrr	s1,mcause
    80003200:	89a6                	mv	s3,s1
    80003202:	34302a73          	csrr	s4,mtval
    80003206:	04800513          	li	a0,72
    8000320a:	066010ef          	jal	ra,80004270 <misa_extension_imp>
    8000320e:	c535                	beqz	a0,8000327a <sbi_trap_handler+0x94>
    80003210:	34b025f3          	csrr	a1,0x34b
    80003214:	8aae                	mv	s5,a1
    80003216:	34a02673          	csrr	a2,0x34a
    8000321a:	8b32                	mv	s6,a2
    8000321c:	0604c363          	bltz	s1,80003282 <sbi_trap_handler+0x9c>
    80003220:	4799                	li	a5,6
    80003222:	4cf487e3          	beq	s1,a5,80003ef0 <sbi_trap_handler+0xd0a>
    80003226:	0297ed63          	bltu	a5,s1,80003260 <sbi_trap_handler+0x7a>
    8000322a:	4789                	li	a5,2
    8000322c:	44f485e3          	beq	s1,a5,80003e76 <sbi_trap_handler+0xc90>
    80003230:	4791                	li	a5,4
    80003232:	44f49ce3          	bne	s1,a5,80003e8a <sbi_trap_handler+0xca4>
    80003236:	86ca                	mv	a3,s2
    80003238:	865a                	mv	a2,s6
    8000323a:	85d6                	mv	a1,s5
    8000323c:	8552                	mv	a0,s4
    8000323e:	43e050ef          	jal	ra,8000867c <sbi_misaligned_load_handler>
    80003242:	0000d697          	auipc	a3,0xd
    80003246:	1e668693          	addi	a3,a3,486 # 80010428 <fdt_nop_node+0x12c6>
    8000324a:	ed29                	bnez	a0,800032a4 <sbi_trap_handler+0xbe>
    8000324c:	70a6                	ld	ra,104(sp)
    8000324e:	7406                	ld	s0,96(sp)
    80003250:	64e6                	ld	s1,88(sp)
    80003252:	6946                	ld	s2,80(sp)
    80003254:	69a6                	ld	s3,72(sp)
    80003256:	6a06                	ld	s4,64(sp)
    80003258:	7ae2                	ld	s5,56(sp)
    8000325a:	7b42                	ld	s6,48(sp)
    8000325c:	6165                	addi	sp,sp,112
    8000325e:	8082                	ret
    80003260:	ff748793          	addi	a5,s1,-9
    80003264:	4705                	li	a4,1
    80003266:	42f762e3          	bltu	a4,a5,80003e8a <sbi_trap_handler+0xca4>
    8000326a:	854a                	mv	a0,s2
    8000326c:	385020ef          	jal	ra,80005df0 <sbi_ecall_handler>
    80003270:	0000d697          	auipc	a3,0xd
    80003274:	1f868693          	addi	a3,a3,504 # 80010468 <fdt_nop_node+0x1306>
    80003278:	bfc9                	j	8000324a <sbi_trap_handler+0x64>
    8000327a:	4b01                	li	s6,0
    8000327c:	4a81                	li	s5,0
    8000327e:	fa04d1e3          	bgez	s1,80003220 <sbi_trap_handler+0x3a>
    80003282:	0486                	slli	s1,s1,0x1
    80003284:	0014d993          	srli	s3,s1,0x1
    80003288:	478d                	li	a5,3
    8000328a:	46f98fe3          	beq	s3,a5,80003f08 <sbi_trap_handler+0xd22>
    8000328e:	479d                	li	a5,7
    80003290:	00f99563          	bne	s3,a5,8000329a <sbi_trap_handler+0xb4>
    80003294:	8d6ff0ef          	jal	ra,8000236a <sbi_timer_process>
    80003298:	bf55                	j	8000324c <sbi_trap_handler+0x66>
    8000329a:	0000d697          	auipc	a3,0xd
    8000329e:	1e668693          	addi	a3,a3,486 # 80010480 <fdt_nop_node+0x131e>
    800032a2:	5579                	li	a0,-2
    800032a4:	f14024f3          	csrr	s1,mhartid
    800032a8:	2481                	sext.w	s1,s1
    800032aa:	872a                	mv	a4,a0
    800032ac:	0000d597          	auipc	a1,0xd
    800032b0:	3e458593          	addi	a1,a1,996 # 80010690 <fdt_nop_node+0x152e>
    800032b4:	8626                	mv	a2,s1
    800032b6:	0000d517          	auipc	a0,0xd
    800032ba:	1ea50513          	addi	a0,a0,490 # 800104a0 <fdt_nop_node+0x133e>
    800032be:	09d020ef          	jal	ra,80005b5a <sbi_printf>
    800032c2:	8752                	mv	a4,s4
    800032c4:	86ce                	mv	a3,s3
    800032c6:	8626                	mv	a2,s1
    800032c8:	0000d597          	auipc	a1,0xd
    800032cc:	3c858593          	addi	a1,a1,968 # 80010690 <fdt_nop_node+0x152e>
    800032d0:	0000d517          	auipc	a0,0xd
    800032d4:	1f050513          	addi	a0,a0,496 # 800104c0 <fdt_nop_node+0x135e>
    800032d8:	083020ef          	jal	ra,80005b5a <sbi_printf>
    800032dc:	04800513          	li	a0,72
    800032e0:	791000ef          	jal	ra,80004270 <misa_extension_imp>
    800032e4:	420516e3          	bnez	a0,80003f10 <sbi_trap_handler+0xd2a>
    800032e8:	10994f03          	lbu	t5,265(s2)
    800032ec:	10194e83          	lbu	t4,257(s2)
    800032f0:	10894703          	lbu	a4,264(s2)
    800032f4:	10094783          	lbu	a5,256(s2)
    800032f8:	10a94e03          	lbu	t3,266(s2)
    800032fc:	10294303          	lbu	t1,258(s2)
    80003300:	10b94883          	lbu	a7,267(s2)
    80003304:	10394803          	lbu	a6,259(s2)
    80003308:	10c94503          	lbu	a0,268(s2)
    8000330c:	10494583          	lbu	a1,260(s2)
    80003310:	0f22                	slli	t5,t5,0x8
    80003312:	0ea2                	slli	t4,t4,0x8
    80003314:	00ef6f33          	or	t5,t5,a4
    80003318:	00feeeb3          	or	t4,t4,a5
    8000331c:	10d94603          	lbu	a2,269(s2)
    80003320:	10594683          	lbu	a3,261(s2)
    80003324:	0e42                	slli	t3,t3,0x10
    80003326:	0342                	slli	t1,t1,0x10
    80003328:	01ee6e33          	or	t3,t3,t5
    8000332c:	01d36333          	or	t1,t1,t4
    80003330:	10e94703          	lbu	a4,270(s2)
    80003334:	10694783          	lbu	a5,262(s2)
    80003338:	08e2                	slli	a7,a7,0x18
    8000333a:	0862                	slli	a6,a6,0x18
    8000333c:	01c8e8b3          	or	a7,a7,t3
    80003340:	00686833          	or	a6,a6,t1
    80003344:	10794e83          	lbu	t4,263(s2)
    80003348:	10f94f03          	lbu	t5,271(s2)
    8000334c:	1502                	slli	a0,a0,0x20
    8000334e:	1582                	slli	a1,a1,0x20
    80003350:	01156533          	or	a0,a0,a7
    80003354:	0105e5b3          	or	a1,a1,a6
    80003358:	1622                	slli	a2,a2,0x28
    8000335a:	16a2                	slli	a3,a3,0x28
    8000335c:	8e49                	or	a2,a2,a0
    8000335e:	8ecd                	or	a3,a3,a1
    80003360:	1742                	slli	a4,a4,0x30
    80003362:	17c2                	slli	a5,a5,0x30
    80003364:	8fd5                	or	a5,a5,a3
    80003366:	1f62                	slli	t5,t5,0x38
    80003368:	038e9693          	slli	a3,t4,0x38
    8000336c:	8f51                	or	a4,a4,a2
    8000336e:	00ef6733          	or	a4,t5,a4
    80003372:	8edd                	or	a3,a3,a5
    80003374:	8626                	mv	a2,s1
    80003376:	0000d597          	auipc	a1,0xd
    8000337a:	31a58593          	addi	a1,a1,794 # 80010690 <fdt_nop_node+0x152e>
    8000337e:	0000d517          	auipc	a0,0xd
    80003382:	1a250513          	addi	a0,a0,418 # 80010520 <fdt_nop_node+0x13be>
    80003386:	7d4020ef          	jal	ra,80005b5a <sbi_printf>
    8000338a:	01194f03          	lbu	t5,17(s2)
    8000338e:	00994e83          	lbu	t4,9(s2)
    80003392:	01094703          	lbu	a4,16(s2)
    80003396:	00894783          	lbu	a5,8(s2)
    8000339a:	01294e03          	lbu	t3,18(s2)
    8000339e:	00a94303          	lbu	t1,10(s2)
    800033a2:	01394883          	lbu	a7,19(s2)
    800033a6:	00b94803          	lbu	a6,11(s2)
    800033aa:	01494503          	lbu	a0,20(s2)
    800033ae:	00c94583          	lbu	a1,12(s2)
    800033b2:	0f22                	slli	t5,t5,0x8
    800033b4:	0ea2                	slli	t4,t4,0x8
    800033b6:	00ef6f33          	or	t5,t5,a4
    800033ba:	00feeeb3          	or	t4,t4,a5
    800033be:	01594603          	lbu	a2,21(s2)
    800033c2:	00d94683          	lbu	a3,13(s2)
    800033c6:	0e42                	slli	t3,t3,0x10
    800033c8:	0342                	slli	t1,t1,0x10
    800033ca:	01ee6e33          	or	t3,t3,t5
    800033ce:	01d36333          	or	t1,t1,t4
    800033d2:	01694783          	lbu	a5,22(s2)
    800033d6:	00e94703          	lbu	a4,14(s2)
    800033da:	08e2                	slli	a7,a7,0x18
    800033dc:	0862                	slli	a6,a6,0x18
    800033de:	01c8e8b3          	or	a7,a7,t3
    800033e2:	00686833          	or	a6,a6,t1
    800033e6:	01794f03          	lbu	t5,23(s2)
    800033ea:	00f94e83          	lbu	t4,15(s2)
    800033ee:	1502                	slli	a0,a0,0x20
    800033f0:	1582                	slli	a1,a1,0x20
    800033f2:	01156533          	or	a0,a0,a7
    800033f6:	0105e5b3          	or	a1,a1,a6
    800033fa:	1622                	slli	a2,a2,0x28
    800033fc:	16a2                	slli	a3,a3,0x28
    800033fe:	8e49                	or	a2,a2,a0
    80003400:	8ecd                	or	a3,a3,a1
    80003402:	17c2                	slli	a5,a5,0x30
    80003404:	1742                	slli	a4,a4,0x30
    80003406:	8fd1                	or	a5,a5,a2
    80003408:	038f1813          	slli	a6,t5,0x38
    8000340c:	1ee2                	slli	t4,t4,0x38
    8000340e:	8f55                	or	a4,a4,a3
    80003410:	00f86833          	or	a6,a6,a5
    80003414:	00eee733          	or	a4,t4,a4
    80003418:	0000d797          	auipc	a5,0xd
    8000341c:	13878793          	addi	a5,a5,312 # 80010550 <fdt_nop_node+0x13ee>
    80003420:	0000d697          	auipc	a3,0xd
    80003424:	13868693          	addi	a3,a3,312 # 80010558 <fdt_nop_node+0x13f6>
    80003428:	8626                	mv	a2,s1
    8000342a:	0000d597          	auipc	a1,0xd
    8000342e:	26658593          	addi	a1,a1,614 # 80010690 <fdt_nop_node+0x152e>
    80003432:	0000d517          	auipc	a0,0xd
    80003436:	12e50513          	addi	a0,a0,302 # 80010560 <fdt_nop_node+0x13fe>
    8000343a:	720020ef          	jal	ra,80005b5a <sbi_printf>
    8000343e:	02194f03          	lbu	t5,33(s2)
    80003442:	01994e83          	lbu	t4,25(s2)
    80003446:	02094703          	lbu	a4,32(s2)
    8000344a:	01894783          	lbu	a5,24(s2)
    8000344e:	02294e03          	lbu	t3,34(s2)
    80003452:	01a94303          	lbu	t1,26(s2)
    80003456:	02394883          	lbu	a7,35(s2)
    8000345a:	01b94803          	lbu	a6,27(s2)
    8000345e:	02494503          	lbu	a0,36(s2)
    80003462:	01c94583          	lbu	a1,28(s2)
    80003466:	0f22                	slli	t5,t5,0x8
    80003468:	0ea2                	slli	t4,t4,0x8
    8000346a:	00ef6f33          	or	t5,t5,a4
    8000346e:	00feeeb3          	or	t4,t4,a5
    80003472:	02594603          	lbu	a2,37(s2)
    80003476:	01d94683          	lbu	a3,29(s2)
    8000347a:	0e42                	slli	t3,t3,0x10
    8000347c:	0342                	slli	t1,t1,0x10
    8000347e:	01ee6e33          	or	t3,t3,t5
    80003482:	01d36333          	or	t1,t1,t4
    80003486:	02694783          	lbu	a5,38(s2)
    8000348a:	01e94703          	lbu	a4,30(s2)
    8000348e:	08e2                	slli	a7,a7,0x18
    80003490:	0862                	slli	a6,a6,0x18
    80003492:	01c8e8b3          	or	a7,a7,t3
    80003496:	00686833          	or	a6,a6,t1
    8000349a:	02794f03          	lbu	t5,39(s2)
    8000349e:	01f94e83          	lbu	t4,31(s2)
    800034a2:	1502                	slli	a0,a0,0x20
    800034a4:	1582                	slli	a1,a1,0x20
    800034a6:	01156533          	or	a0,a0,a7
    800034aa:	0105e5b3          	or	a1,a1,a6
    800034ae:	1622                	slli	a2,a2,0x28
    800034b0:	16a2                	slli	a3,a3,0x28
    800034b2:	8e49                	or	a2,a2,a0
    800034b4:	8ecd                	or	a3,a3,a1
    800034b6:	17c2                	slli	a5,a5,0x30
    800034b8:	1742                	slli	a4,a4,0x30
    800034ba:	8fd1                	or	a5,a5,a2
    800034bc:	038f1813          	slli	a6,t5,0x38
    800034c0:	1ee2                	slli	t4,t4,0x38
    800034c2:	8f55                	or	a4,a4,a3
    800034c4:	00f86833          	or	a6,a6,a5
    800034c8:	00eee733          	or	a4,t4,a4
    800034cc:	0000d797          	auipc	a5,0xd
    800034d0:	0bc78793          	addi	a5,a5,188 # 80010588 <fdt_nop_node+0x1426>
    800034d4:	0000d697          	auipc	a3,0xd
    800034d8:	0bc68693          	addi	a3,a3,188 # 80010590 <fdt_nop_node+0x142e>
    800034dc:	8626                	mv	a2,s1
    800034de:	0000d597          	auipc	a1,0xd
    800034e2:	1b258593          	addi	a1,a1,434 # 80010690 <fdt_nop_node+0x152e>
    800034e6:	0000d517          	auipc	a0,0xd
    800034ea:	07a50513          	addi	a0,a0,122 # 80010560 <fdt_nop_node+0x13fe>
    800034ee:	66c020ef          	jal	ra,80005b5a <sbi_printf>
    800034f2:	04994f03          	lbu	t5,73(s2)
    800034f6:	04194e83          	lbu	t4,65(s2)
    800034fa:	04894703          	lbu	a4,72(s2)
    800034fe:	04094783          	lbu	a5,64(s2)
    80003502:	04a94e03          	lbu	t3,74(s2)
    80003506:	04294303          	lbu	t1,66(s2)
    8000350a:	04b94883          	lbu	a7,75(s2)
    8000350e:	04394803          	lbu	a6,67(s2)
    80003512:	04c94503          	lbu	a0,76(s2)
    80003516:	04494583          	lbu	a1,68(s2)
    8000351a:	0f22                	slli	t5,t5,0x8
    8000351c:	0ea2                	slli	t4,t4,0x8
    8000351e:	00ef6f33          	or	t5,t5,a4
    80003522:	00feeeb3          	or	t4,t4,a5
    80003526:	04d94603          	lbu	a2,77(s2)
    8000352a:	04594683          	lbu	a3,69(s2)
    8000352e:	0e42                	slli	t3,t3,0x10
    80003530:	0342                	slli	t1,t1,0x10
    80003532:	01ee6e33          	or	t3,t3,t5
    80003536:	01d36333          	or	t1,t1,t4
    8000353a:	04e94783          	lbu	a5,78(s2)
    8000353e:	04694703          	lbu	a4,70(s2)
    80003542:	08e2                	slli	a7,a7,0x18
    80003544:	0862                	slli	a6,a6,0x18
    80003546:	01c8e8b3          	or	a7,a7,t3
    8000354a:	00686833          	or	a6,a6,t1
    8000354e:	04f94f03          	lbu	t5,79(s2)
    80003552:	04794e83          	lbu	t4,71(s2)
    80003556:	1502                	slli	a0,a0,0x20
    80003558:	1582                	slli	a1,a1,0x20
    8000355a:	01156533          	or	a0,a0,a7
    8000355e:	0105e5b3          	or	a1,a1,a6
    80003562:	1622                	slli	a2,a2,0x28
    80003564:	16a2                	slli	a3,a3,0x28
    80003566:	8e49                	or	a2,a2,a0
    80003568:	8ecd                	or	a3,a3,a1
    8000356a:	17c2                	slli	a5,a5,0x30
    8000356c:	1742                	slli	a4,a4,0x30
    8000356e:	8fd1                	or	a5,a5,a2
    80003570:	038f1813          	slli	a6,t5,0x38
    80003574:	1ee2                	slli	t4,t4,0x38
    80003576:	8f55                	or	a4,a4,a3
    80003578:	00f86833          	or	a6,a6,a5
    8000357c:	00eee733          	or	a4,t4,a4
    80003580:	0000d797          	auipc	a5,0xd
    80003584:	01878793          	addi	a5,a5,24 # 80010598 <fdt_nop_node+0x1436>
    80003588:	0000d697          	auipc	a3,0xd
    8000358c:	01868693          	addi	a3,a3,24 # 800105a0 <fdt_nop_node+0x143e>
    80003590:	8626                	mv	a2,s1
    80003592:	0000d597          	auipc	a1,0xd
    80003596:	0fe58593          	addi	a1,a1,254 # 80010690 <fdt_nop_node+0x152e>
    8000359a:	0000d517          	auipc	a0,0xd
    8000359e:	fc650513          	addi	a0,a0,-58 # 80010560 <fdt_nop_node+0x13fe>
    800035a2:	5b8020ef          	jal	ra,80005b5a <sbi_printf>
    800035a6:	05994f03          	lbu	t5,89(s2)
    800035aa:	05194e83          	lbu	t4,81(s2)
    800035ae:	05894703          	lbu	a4,88(s2)
    800035b2:	05094783          	lbu	a5,80(s2)
    800035b6:	05a94e03          	lbu	t3,90(s2)
    800035ba:	05294303          	lbu	t1,82(s2)
    800035be:	05b94883          	lbu	a7,91(s2)
    800035c2:	05394803          	lbu	a6,83(s2)
    800035c6:	05c94503          	lbu	a0,92(s2)
    800035ca:	05494583          	lbu	a1,84(s2)
    800035ce:	0f22                	slli	t5,t5,0x8
    800035d0:	0ea2                	slli	t4,t4,0x8
    800035d2:	00ef6f33          	or	t5,t5,a4
    800035d6:	00feeeb3          	or	t4,t4,a5
    800035da:	05d94603          	lbu	a2,93(s2)
    800035de:	05594683          	lbu	a3,85(s2)
    800035e2:	0e42                	slli	t3,t3,0x10
    800035e4:	0342                	slli	t1,t1,0x10
    800035e6:	01ee6e33          	or	t3,t3,t5
    800035ea:	01d36333          	or	t1,t1,t4
    800035ee:	05e94783          	lbu	a5,94(s2)
    800035f2:	05694703          	lbu	a4,86(s2)
    800035f6:	08e2                	slli	a7,a7,0x18
    800035f8:	0862                	slli	a6,a6,0x18
    800035fa:	01c8e8b3          	or	a7,a7,t3
    800035fe:	00686833          	or	a6,a6,t1
    80003602:	05f94f03          	lbu	t5,95(s2)
    80003606:	05794e83          	lbu	t4,87(s2)
    8000360a:	1502                	slli	a0,a0,0x20
    8000360c:	1582                	slli	a1,a1,0x20
    8000360e:	01156533          	or	a0,a0,a7
    80003612:	0105e5b3          	or	a1,a1,a6
    80003616:	1622                	slli	a2,a2,0x28
    80003618:	16a2                	slli	a3,a3,0x28
    8000361a:	8e49                	or	a2,a2,a0
    8000361c:	8ecd                	or	a3,a3,a1
    8000361e:	17c2                	slli	a5,a5,0x30
    80003620:	1742                	slli	a4,a4,0x30
    80003622:	8fd1                	or	a5,a5,a2
    80003624:	038f1813          	slli	a6,t5,0x38
    80003628:	1ee2                	slli	t4,t4,0x38
    8000362a:	8f55                	or	a4,a4,a3
    8000362c:	00f86833          	or	a6,a6,a5
    80003630:	00eee733          	or	a4,t4,a4
    80003634:	0000d797          	auipc	a5,0xd
    80003638:	f7478793          	addi	a5,a5,-140 # 800105a8 <fdt_nop_node+0x1446>
    8000363c:	0000d697          	auipc	a3,0xd
    80003640:	f7468693          	addi	a3,a3,-140 # 800105b0 <fdt_nop_node+0x144e>
    80003644:	8626                	mv	a2,s1
    80003646:	0000d597          	auipc	a1,0xd
    8000364a:	04a58593          	addi	a1,a1,74 # 80010690 <fdt_nop_node+0x152e>
    8000364e:	0000d517          	auipc	a0,0xd
    80003652:	f1250513          	addi	a0,a0,-238 # 80010560 <fdt_nop_node+0x13fe>
    80003656:	504020ef          	jal	ra,80005b5a <sbi_printf>
    8000365a:	06994f03          	lbu	t5,105(s2)
    8000365e:	06194e83          	lbu	t4,97(s2)
    80003662:	06894703          	lbu	a4,104(s2)
    80003666:	06094783          	lbu	a5,96(s2)
    8000366a:	06a94e03          	lbu	t3,106(s2)
    8000366e:	06294303          	lbu	t1,98(s2)
    80003672:	06b94883          	lbu	a7,107(s2)
    80003676:	06394803          	lbu	a6,99(s2)
    8000367a:	06c94503          	lbu	a0,108(s2)
    8000367e:	06494583          	lbu	a1,100(s2)
    80003682:	0f22                	slli	t5,t5,0x8
    80003684:	0ea2                	slli	t4,t4,0x8
    80003686:	00ef6f33          	or	t5,t5,a4
    8000368a:	00feeeb3          	or	t4,t4,a5
    8000368e:	06d94603          	lbu	a2,109(s2)
    80003692:	06594683          	lbu	a3,101(s2)
    80003696:	0e42                	slli	t3,t3,0x10
    80003698:	0342                	slli	t1,t1,0x10
    8000369a:	01ee6e33          	or	t3,t3,t5
    8000369e:	01d36333          	or	t1,t1,t4
    800036a2:	06e94783          	lbu	a5,110(s2)
    800036a6:	06694703          	lbu	a4,102(s2)
    800036aa:	08e2                	slli	a7,a7,0x18
    800036ac:	0862                	slli	a6,a6,0x18
    800036ae:	01c8e8b3          	or	a7,a7,t3
    800036b2:	00686833          	or	a6,a6,t1
    800036b6:	06f94f03          	lbu	t5,111(s2)
    800036ba:	06794e83          	lbu	t4,103(s2)
    800036be:	1502                	slli	a0,a0,0x20
    800036c0:	1582                	slli	a1,a1,0x20
    800036c2:	01156533          	or	a0,a0,a7
    800036c6:	0105e5b3          	or	a1,a1,a6
    800036ca:	1622                	slli	a2,a2,0x28
    800036cc:	16a2                	slli	a3,a3,0x28
    800036ce:	8e49                	or	a2,a2,a0
    800036d0:	8ecd                	or	a3,a3,a1
    800036d2:	17c2                	slli	a5,a5,0x30
    800036d4:	1742                	slli	a4,a4,0x30
    800036d6:	8fd1                	or	a5,a5,a2
    800036d8:	038f1813          	slli	a6,t5,0x38
    800036dc:	1ee2                	slli	t4,t4,0x38
    800036de:	8f55                	or	a4,a4,a3
    800036e0:	00f86833          	or	a6,a6,a5
    800036e4:	00eee733          	or	a4,t4,a4
    800036e8:	0000d797          	auipc	a5,0xd
    800036ec:	ed078793          	addi	a5,a5,-304 # 800105b8 <fdt_nop_node+0x1456>
    800036f0:	0000d697          	auipc	a3,0xd
    800036f4:	ed068693          	addi	a3,a3,-304 # 800105c0 <fdt_nop_node+0x145e>
    800036f8:	8626                	mv	a2,s1
    800036fa:	0000d597          	auipc	a1,0xd
    800036fe:	f9658593          	addi	a1,a1,-106 # 80010690 <fdt_nop_node+0x152e>
    80003702:	0000d517          	auipc	a0,0xd
    80003706:	e5e50513          	addi	a0,a0,-418 # 80010560 <fdt_nop_node+0x13fe>
    8000370a:	450020ef          	jal	ra,80005b5a <sbi_printf>
    8000370e:	07994f03          	lbu	t5,121(s2)
    80003712:	07194e83          	lbu	t4,113(s2)
    80003716:	07894703          	lbu	a4,120(s2)
    8000371a:	07094783          	lbu	a5,112(s2)
    8000371e:	07a94e03          	lbu	t3,122(s2)
    80003722:	07294303          	lbu	t1,114(s2)
    80003726:	07b94883          	lbu	a7,123(s2)
    8000372a:	07394803          	lbu	a6,115(s2)
    8000372e:	07c94503          	lbu	a0,124(s2)
    80003732:	07494583          	lbu	a1,116(s2)
    80003736:	0f22                	slli	t5,t5,0x8
    80003738:	0ea2                	slli	t4,t4,0x8
    8000373a:	00ef6f33          	or	t5,t5,a4
    8000373e:	00feeeb3          	or	t4,t4,a5
    80003742:	07d94603          	lbu	a2,125(s2)
    80003746:	07594683          	lbu	a3,117(s2)
    8000374a:	0e42                	slli	t3,t3,0x10
    8000374c:	0342                	slli	t1,t1,0x10
    8000374e:	01ee6e33          	or	t3,t3,t5
    80003752:	01d36333          	or	t1,t1,t4
    80003756:	07e94783          	lbu	a5,126(s2)
    8000375a:	07694703          	lbu	a4,118(s2)
    8000375e:	08e2                	slli	a7,a7,0x18
    80003760:	0862                	slli	a6,a6,0x18
    80003762:	01c8e8b3          	or	a7,a7,t3
    80003766:	00686833          	or	a6,a6,t1
    8000376a:	07f94f03          	lbu	t5,127(s2)
    8000376e:	07794e83          	lbu	t4,119(s2)
    80003772:	1502                	slli	a0,a0,0x20
    80003774:	1582                	slli	a1,a1,0x20
    80003776:	01156533          	or	a0,a0,a7
    8000377a:	0105e5b3          	or	a1,a1,a6
    8000377e:	1622                	slli	a2,a2,0x28
    80003780:	16a2                	slli	a3,a3,0x28
    80003782:	8e49                	or	a2,a2,a0
    80003784:	8ecd                	or	a3,a3,a1
    80003786:	17c2                	slli	a5,a5,0x30
    80003788:	1742                	slli	a4,a4,0x30
    8000378a:	8fd1                	or	a5,a5,a2
    8000378c:	038f1813          	slli	a6,t5,0x38
